
C:/fs3_vsd/projects/SiFive_BitNET_MCU/src/release/SiFive_BitNET_MCU.elf:     file format elf32-littleriscv
C:/fs3_vsd/projects/SiFive_BitNET_MCU/src/release/SiFive_BitNET_MCU.elf
architecture: riscv:rv32, flags 0x00000112:
EXEC_P, HAS_SYMS, D_PAGED
start address 0x20100000

Program Header:
0x70000003 off    0x0000aae9 vaddr 0x00000000 paddr 0x00000000 align 2**0
         filesz 0x0000004d memsz 0x00000000 flags r--
    LOAD off    0x00001000 vaddr 0x20100000 paddr 0x20100000 align 2**12
         filesz 0x00004afc memsz 0x00004afc flags rwx
    LOAD off    0x0000a000 vaddr 0x80000000 paddr 0x201089e0 align 2**12
         filesz 0x00000ab0 memsz 0x00000ab0 flags rw-
     TLS off    0x00000000 vaddr 0x00000000 paddr 0x00000000 align 2**2
         filesz 0x00000000 memsz 0x00000000 flags ---
    LOAD off    0x00000ab0 vaddr 0x80000ab0 paddr 0x80000ab0 align 2**12
         filesz 0x00000000 memsz 0x00000cc0 flags rw-
    LOAD off    0x00000134 vaddr 0x00000000 paddr 0x00000000 align 2**12
         filesz 0x00000000 memsz 0x00000000 flags ---
    LOAD off    0x00005b00 vaddr 0x20104b00 paddr 0x20104b00 align 2**12
         filesz 0x00003ede memsz 0x00003ede flags r-x
    LOAD off    0x00000134 vaddr 0x00000000 paddr 0x00000000 align 2**12
         filesz 0x00000000 memsz 0x00000000 flags ---

Sections:
Idx Name              Size      VMA       LMA       File off  Algn  Flags
  0 .init             000002ac  20100000  20100000  00001000  2**4  CONTENTS, ALLOC, LOAD, READONLY, CODE
  1 .init_array       0000000c  201002b0  201002b0  000012b0  2**3  CONTENTS, ALLOC, LOAD, DATA
  2 .ctors            00000054  201002bc  201002bc  000012bc  2**1  CONTENTS, ALLOC, LOAD, READONLY, CODE
  3 .rodata           000047ec  20100310  20100310  00001310  2**3  CONTENTS, ALLOC, LOAD, READONLY, CODE
  4 .text             00003ede  20104b00  20104b00  00005b00  2**7  CONTENTS, ALLOC, LOAD, READONLY, CODE
  5 .data             00000ab0  80000000  201089e0  0000a000  2**3  CONTENTS, ALLOC, LOAD, DATA
  6 .bss              000000b8  80000ab0  80000ab0  0000aab0  2**3  ALLOC
  7 .stack            00000400  80000b70  80000b70  0000aab0  2**4  ALLOC
  8 .heap             00000800  80000f70  80000f70  0000aab0  2**3  ALLOC
  9 .comment          00000039  00000000  00000000  0000aab0  2**0  CONTENTS, READONLY
 10 .riscv.attributes 0000004d  00000000  00000000  0000aae9  2**0  CONTENTS, READONLY
SYMBOL TABLE:
20100000 l    d  .init	00000000 .init
201002b0 l    d  .init_array	00000000 .init_array
201002bc l    d  .ctors	00000000 .ctors
20100310 l    d  .rodata	00000000 .rodata
20104b00 l    d  .text	00000000 .text
80000000 l    d  .data	00000000 .data
80000ab0 l    d  .bss	00000000 .bss
80000b70 l    d  .stack	00000000 .stack
80000f70 l    d  .heap	00000000 .heap
00000000 l    d  .comment	00000000 .comment
00000000 l    d  .riscv.attributes	00000000 .riscv.attributes
00000000 l    df *ABS*	00000000 entry.o
00000000 l    df *ABS*	00000000 scrub.o
201000c0 l     F .init	00000000 __metal_memory_scrub
2010012e l       .init	00000000 skip_scrub
00000000 l    df *ABS*	00000000 trap.o
00000000 l    df *ABS*	00000000 synchronize_harts.c
00000000 l    df *ABS*	00000000 crt0.o
20100228 l       .init	00000000 _skip_init
201048e0 l       .rodata	00000000 argv
201048e4 l       .rodata	00000000 envp
201048e8 l       .rodata	00000000 name
00000000 l    df *ABS*	00000000 sifive_fe310-g000_pll.c
20103f90 l     O .rodata	00000880 pll_configs
00000000 l    df *ABS*	00000000 tty.c
00000000 l    df *ABS*	00000000 SiFive_BitNET_MCU.c
00000000 l    df *ABS*	00000000 findfp.c
2010546c l     F .text	00000068 std
00000000 l    df *ABS*	00000000 nano-vfprintf_i.c
00000000 l    df *ABS*	00000000 riscv_clint0.c
2010634e l     F .text	00000010 _get_cpu_intc
00000000 l    df *ABS*	00000000 riscv_cpu.c
20104ad8 l     O .rodata	00000003 CSWTCH.79
00000000 l    df *ABS*	00000000 riscv_plic0.c
00000000 l    df *ABS*	00000000 sifive_gpio-leds.c
20107c4a l     F .text	00000022 __metal_driver_sifive_gpio_led_gpio
20107c6c l     F .text	00000026 __metal_driver_sifive_gpio_led_pin
00000000 l    df *ABS*	00000000 sifive_gpio0.c
00000000 l    df *ABS*	00000000 sifive_uart0.c
2010827a l     F .text	0000007c pre_rate_change_callback_func
2010837e l     F .text	00000008 post_rate_change_callback_func
00000000 l    df *ABS*	00000000 impure.c
80000000 l     O .data	00000060 impure_data
00000000 l    df *ABS*	00000000 sifive_fe310-g000_hfrosc.c
00000000 l    df *ABS*	00000000 sifive_fe310-g000_hfxosc.c
00000000 l    df *ABS*	00000000 sifive_fe310-g000_prci.c
00000000 l    df *ABS*	00000000 fixed-clock.c
00000000 l    df *ABS*	00000000 printf.c
00000000 l    df *ABS*	00000000 putchar.c
00000000 l    df *ABS*	00000000 putc.c
00000000 l    df *ABS*	00000000 puts.c
00000000 l    df *ABS*	00000000 wbuf.c
00000000 l    df *ABS*	00000000 wsetup.c
00000000 l    df *ABS*	00000000 fflush.c
00000000 l    df *ABS*	00000000 fwalk.c
00000000 l    df *ABS*	00000000 makebuf.c
00000000 l    df *ABS*	00000000 lib_a-memset.o
00000000 l    df *ABS*	00000000 nano-mallocr.c
00000000 l    df *ABS*	00000000 nano-mallocr.c
00000000 l    df *ABS*	00000000 nano-vfprintf.c
201059a6 l     F .text	0000002a __sfputc_r
00000000 l    df *ABS*	00000000 sbrkr.c
00000000 l    df *ABS*	00000000 stdio.c
00000000 l    df *ABS*	00000000 writer.c
00000000 l    df *ABS*	00000000 closer.c
00000000 l    df *ABS*	00000000 fstatr.c
00000000 l    df *ABS*	00000000 isattyr.c
00000000 l    df *ABS*	00000000 lseekr.c
00000000 l    df *ABS*	00000000 memchr.c
00000000 l    df *ABS*	00000000 mlock.c
00000000 l    df *ABS*	00000000 readr.c
00000000 l    df *ABS*	00000000 cpu.c
00000000 l    df *ABS*	00000000 interrupt.c
00000000 l    df *ABS*	00000000 led.c
00000000 l    df *ABS*	00000000 clock.c
00000000 l    df *ABS*	00000000 shutdown.c
00000000 l    df *ABS*	00000000 vector.o
20108400 l       .text	00000000 IRQ_0
20108404 l       .text	00000000 IRQ_1
20108408 l       .text	00000000 IRQ_2
2010840c l       .text	00000000 IRQ_3
20108410 l       .text	00000000 IRQ_4
20108414 l       .text	00000000 IRQ_5
20108418 l       .text	00000000 IRQ_6
2010841c l       .text	00000000 IRQ_7
20108420 l       .text	00000000 IRQ_8
20108424 l       .text	00000000 IRQ_9
20108428 l       .text	00000000 IRQ_10
2010842c l       .text	00000000 IRQ_11
20108430 l       .text	00000000 IRQ_12
20108434 l       .text	00000000 IRQ_13
20108438 l       .text	00000000 IRQ_14
2010843c l       .text	00000000 IRQ_15
20108440 l       .text	00000000 IRQ_LC0
20108444 l       .text	00000000 IRQ_LC1
20108448 l       .text	00000000 IRQ_LC2
2010844c l       .text	00000000 IRQ_LC3
20108450 l       .text	00000000 IRQ_LC4
20108454 l       .text	00000000 IRQ_LC5
20108458 l       .text	00000000 IRQ_LC6
2010845c l       .text	00000000 IRQ_LC7
20108460 l       .text	00000000 IRQ_LC8
20108464 l       .text	00000000 IRQ_LC9
20108468 l       .text	00000000 IRQ_LC10
2010846c l       .text	00000000 IRQ_LC11
20108470 l       .text	00000000 IRQ_LC12
20108474 l       .text	00000000 IRQ_LC13
20108478 l       .text	00000000 IRQ_LC14
2010847c l       .text	00000000 IRQ_LC15
00000000 l    df *ABS*	00000000 sys_close.c
00000000 l    df *ABS*	00000000 sys_fstat.c
00000000 l    df *ABS*	00000000 sys_isatty.c
00000000 l    df *ABS*	00000000 sys_lseek.c
00000000 l    df *ABS*	00000000 sys_read.c
00000000 l    df *ABS*	00000000 sys_sbrk.c
80000aac l     O .data	00000004 __brk
00000000 l    df *ABS*	00000000 sys_write.c
00000000 l    df *ABS*	00000000 atexit.c
00000000 l    df *ABS*	00000000 errno.c
00000000 l    df *ABS*	00000000 exit.c
00000000 l    df *ABS*	00000000 fini.c
00000000 l    df *ABS*	00000000 init.c
00000000 l    df *ABS*	00000000 strcat.c
00000000 l    df *ABS*	00000000 lib_a-strcmp.o
00000000 l    df *ABS*	00000000 strcpy.c
00000000 l    df *ABS*	00000000 __atexit.c
80000ac8 l     O .bss	0000008c _global_atexit0
00000000 l    df *ABS*	00000000 __call_atexit.c
00000000 l    df *ABS*	00000000 init.c
80000ac4 l     O .bss	00000004 init_done.1
80000ac0 l     O .bss	00000004 fini_done.0
00000000 l    df *ABS*	00000000 uart.c
00000000 l    df *ABS*	00000000 sys_exit.c
00000000 l    df *ABS*	00000000 inline.c
201002bc l       .init_array	00000000 metal_constructors_end
201002c0 l       .init_array	00000000 __fini_array_end
201002c0 l       .init_array	00000000 metal_destructors_end
201002c0 l       .init_array	00000000 metal_destructors_start
201002c0 l       .init_array	00000000 __fini_array_start
201002b0 l       .init_array	00000000 __init_array_end
201002b0 l       .init_array	00000000 __preinit_array_end
201002b0 l       .init_array	00000000 __init_array_start
201002b0 l       .init_array	00000000 metal_constructors_start
201002b0 l       .init_array	00000000 __preinit_array_start
20104f76 g     F .text	0000002a putchar
2010489c g     O .rodata	00000040 __metal_driver_vtable_sifive_uart0
20107c92 g     F .text	00000050 __metal_driver_led_exist
20106236 g     F .text	00000006 metal_cpu_timer_get_interrupt_id
2010091c g     O .rodata	00000100 input_data_2
20105e06 g     F .text	00000028 _isatty_r
201087e0 g     F .text	00000012 strcpy
20106c72  w    F .text	0000007e metal_lc4_interrupt_vector_handler
20105022 g     F .text	000000e4 _puts_r
20105e2e g     F .text	0000002c _lseek_r
201083ba g     F .text	00000006 metal_clock_get_rate_hz
2010822c g     F .text	0000004e __metal_driver_sifive_uart0_set_baud_rate
201063ca g     F .text	00000024 __metal_driver_riscv_clint0_set_vector_mode
2010814e g     F .text	00000024 __metal_driver_sifive_uart0_set_tx_watermark
20106bf4  w    F .text	0000007e metal_lc3_interrupt_vector_handler
2010727e g     F .text	00000028 __metal_valid_interrupt_id
20104f38 g     F .text	0000003e printf
201002b0 g     O .init_array	00000004 _use_hfxosc_ptr
2010727c g     F .text	00000002 __metal_driver_riscv_cpu_controller_get_vector_mode
80001280 g       .data	00000000 __global_pointer$
201002fe g     F .ctors	00000012 metal_tty_init
20106230 g     F .text	00000006 metal_cpu_timer_interrupt_controller
20106276 g     F .text	00000006 metal_led_off
201083a2 g     F .text	00000018 _metal_clock_append_to_callbacks
2010750a g     F .text	00000022 __metal_plic0_complete_interrupt
201072a6 g     F .text	000000d2 __metal_driver_riscv_cpu_controller_interrupt_register
201002b4 g     O .init_array	00000004 _metal_sifive_fe310_g000_pll_init_ptr
20105d4c g     F .text	00000036 __sseek
20105522 g     F .text	0000006a __sinit
20104810 g     O .rodata	00000014 __metal_driver_vtable_sifive_led
20105112 g     F .text	000000c0 __swbuf_r
80000ab0 g       .data	00000000 __tls_base
201054de g     F .text	00000044 __sfmoreglue
20105e76 g     F .text	00000002 __malloc_unlock
20106242 g     F .text	00000010 metal_cpu_get
20106270 g     F .text	00000006 metal_led_on
80000090 g     O .data	00000020 __metal_dt_serial_10013000
20107ede g     F .text	0000001c __metal_driver_sifive_gpio0_disable_io
20103e14 g     O .rodata	00000064 __metal_driver_vtable_riscv_clint0
80000b68 g       .bss	00000000 metal_segment_bss_target_end
2010648a g     F .text	00000024 __metal_clint0_mtime_get
2010681c g     F .text	00000012 __metal_driver_cpu_get_instruction_length
00000001 g       *ABS*	00000000 __metal_chicken_bit
201081b2 g     F .text	0000001c __metal_driver_sifive_uart0_get_rx_watermark
20107dfc g     F .text	0000001c __metal_driver_sifive_gpio0_disable_input
201085e0 g     F .text	0000000a __errno
80000000 g       .text	00000000 metal_segment_itim_target_start
20108134 g     F .text	0000001a __metal_driver_sifive_uart0_txready
201080fa g     F .text	0000001e __metal_driver_sifive_uart0_rx_interrupt_enable
20100142 g     F .init	00000002 __metal_synchronize_harts
80000ab0 g       .data	00000000 metal_segment_bss_target_start
201062cc g     F .text	00000028 __metal_driver_riscv_clint0_mtimecmp_set
20105ddc g     F .text	0000002a _fstat_r
20107f82 g     F .text	0000006e __metal_driver_sifive_gpio0_clear_int
80000ab8 g     O .bss	00000004 errno
201079a6 g     F .text	000000c4 __metal_driver_sifive_fe310_g000_pll_get_rate_hz
00000400 g       *ABS*	00000000 __stack_size
201083c0 g     F .text	00000016 metal_clock_register_pre_rate_change_callback
20107da6 g     F .text	0000003e __metal_driver_led_on
20106ee8  w    F .text	0000007e metal_lc9_interrupt_vector_handler
201000cc  w    F .init	00000000 __metal_before_start
201089ba  w    F .text	00000002 metal_init_run
20103f20 g     O .rodata	00000064 __metal_driver_vtable_riscv_plic0
20103e78 g     O .rodata	00000044 __metal_driver_vtable_cpu
201082f6 g     F .text	00000088 __metal_driver_sifive_uart0_init
00000000 g       *ABS*	00000000 __metal_eccscrub_bit
80000b54 g     O .bss	00000004 cpu
20106702 g     F .text	00000012 __metal_driver_cpu_mcycle_get
20103f84 g     O .rodata	0000000c __metal_driver_vtable_sifive_fe310_g000_pll
80000f70 g       .heap	00000000 metal_segment_heap_target_start
201054d4 g     F .text	0000000a _cleanup_r
80000a9c g     O .data	00000008 __metal_dt_cpu_0
20106e6a  w    F .text	0000007e metal_lc8_interrupt_vector_handler
20107a6a g     F .text	000001ca __metal_driver_sifive_fe310_g000_pll_set_rate_hz
201075c6 g     F .text	0000004c __metal_driver_riscv_plic0_affinity_set_threshold
20105106 g     F .text	0000000c puts
201070e0  w    F .text	0000007e metal_lc13_interrupt_vector_handler
20106840 g     F .text	0000000c __metal_default_exception_handler
20108520 g     F .text	00000014 _fstat
20106548 g     F .text	0000001c __metal_driver_riscv_clint0_set_interrupt
201068de g     F .text	00000032 __metal_driver_riscv_cpu_controller_set_vector_mode
20100c1c g     O .rodata	00000140 L4_weights
20106910 g     F .text	00000018 __metal_driver_cpu_get
20103ebc g     O .rodata	00000064 __metal_driver_vtable_riscv_cpu_intc
2010764c g     F .text	0000000e __metal_driver_riscv_plic0_affinity_get_threshold
2010626a g     F .text	00000006 metal_led_enable
20106dec  w    F .text	0000007e metal_lc7_interrupt_vector_handler
20106f66  w    F .text	0000007e metal_lc10_interrupt_vector_handler
20105ca6 g     F .text	00000028 _sbrk_r
201077cc g     F .text	0000003c __metal_driver_riscv_plic0_disable
201073e2 g     F .text	0000001c __metal_exception_register
2010627c g     F .text	00000050 metal_led_get_rgb
20108932 g     F .text	00000044 metal_init
201061fe g     F .text	0000002c _read_r
20106768 g     F .text	00000006 __metal_driver_cpu_timer_controller_interrupt
20107e5c g     F .text	00000018 __metal_driver_sifive_gpio0_enable_output
80000000 g       .text	00000000 metal_segment_lim_target_end
20106564 g     F .text	00000042 __metal_default_sw_handler
201083d6 g     F .text	00000016 metal_clock_register_post_rate_change_callback
80000a64 g     O .data	0000000c __metal_dt_clock_2
20108092 g     F .text	0000001a __metal_driver_sifive_uart0_interrupt_controller
20108534 g     F .text	00000008 _isatty
20107ea8 g     F .text	00000018 __metal_driver_sifive_gpio0_output_toggle
2010081c g     O .rodata	00000100 input_data_3
201080c0 g     F .text	0000001e __metal_driver_sifive_uart0_tx_interrupt_enable
20104af4 g     O .rodata	00000008 __metal_driver_vtable_fixed_clock
20104ad4 g     O .rodata	00000004 _global_impure_ptr
201069fc  w    F .text	0000007e metal_timer_interrupt_vector_handler
20108648 g     F .text	0000005e __libc_init_array
20107d68 g     F .text	0000003e __metal_driver_led_off
80000a8c g     O .data	00000004 __metal_dt_led_2
20107e74 g     F .text	00000018 __metal_driver_sifive_gpio0_output_set
20106fe4  w    F .text	0000007e metal_lc11_interrupt_vector_handler
20107956 g     F .text	00000002 __metal_driver_sifive_fe310_g000_hfxosc_set_rate_hz
201073da g     F .text	00000004 __metal_driver_riscv_cpu_controller_interrupt_enable
20108564 g     F .text	00000038 _sbrk
20107e40 g     F .text	0000001c __metal_driver_sifive_gpio0_disable_output
20108386 g     F .text	0000001c _metal_clock_call_all_callbacks
2010028a g     F .init	00000002 _init
20107efa g     F .text	00000088 __metal_driver_sifive_gpio0_config_int
201067a6 g     F .text	00000030 __metal_driver_cpu_clear_sw_ipi
20104860 g     O .rodata	0000003c __metal_driver_vtable_sifive_gpio0
201080de g     F .text	0000001c __metal_driver_sifive_uart0_tx_interrupt_disable
20107ec0 g     F .text	0000001e __metal_driver_sifive_gpio0_enable_io
20108612 g     F .text	00000036 __libc_fini_array
8000006c g     O .data	0000000c __metal_dt_clock_4
2010155c g     O .rodata	00000800 L2_weights
20108976 g     F .text	00000044 metal_fini
20107ff0 g     F .text	00000016 __metal_driver_gpio_interrupt_controller
20106772 g     F .text	00000004 __metal_driver_cpu_get_sw_interrupt_id
2010683c g     F .text	00000004 __metal_driver_cpu_get_buserror
80000000 g       .data	00000000 metal_segment_data_target_start
2010652c g     F .text	0000001c __metal_driver_riscv_clint0_clear_interrupt
201089be g     F .text	0000000c metal_tty_putc
201074dc g     F .text	0000000c __metal_plic0_default_handler
2010859c  w    F .text	0000003a write
20104fa0 g     F .text	00000082 _putc_r
00000000 g       *ABS*	00000000 __tbss_size
80000a70 g     O .data	0000000c __metal_dt_clock_0
201086a6 g     F .text	0000001c strcat
00000800 g       *ABS*	00000000 __heap_size
201075aa g     F .text	0000001c __metal_driver_riscv_plic0_set_threshold
201065a6 g     F .text	00000002 __metal_default_beu_handler
20103d5c g     O .rodata	00000020 __sf_fake_stderr
2010622a g     F .text	00000006 metal_cpu_get_mtime
201080ac g     F .text	00000014 __metal_driver_sifive_uart0_get_interrupt_id
201048f8 g     F .rodata	000001dc processfclayer
201066fe g     F .text	00000004 __metal_driver_riscv_cpu_controller_command_request
2010687a g     F .text	0000005e __metal_driver_riscv_cpu_controller_interrupt_init
201059d0 g     F .text	00000042 __sfputs_r
201073fe g     F .text	00000016 __metal_driver_cpu_exception_register
20106af8  w    F .text	0000007e metal_lc1_interrupt_vector_handler
20105e5a g     F .text	0000001a memchr
20105838 g     F .text	0000009e _free_r
80000abc g     O .bss	00000004 _global_atexit
20107414 g     F .text	00000026 __metal_driver_riscv_plic0_set_priority
2010725a g     F .text	00000022 __metal_controller_interrupt_vector_mode
2010886e g     F .text	000000c4 __call_exitprocs
80000f70 g       .stack	00000000 _sp
201002b8 g     O .init_array	00000004 _metal_tty_init_ptr
20100144 g     F .init	00000000 _start
20104d2a g     F .text	000000b2 BitMnistInference
201078d0 g     F .text	00000048 __metal_driver_sifive_fe310_g000_hfrosc_get_rate_hz
2010853c g     F .text	00000014 _lseek
20106806 g     F .text	00000016 __metal_driver_cpu_controller_interrupt
2010682e g     F .text	00000006 __metal_driver_cpu_get_exception_pc
201087f2 g     F .text	0000007c __register_exitproc
201081ce g     F .text	00000036 __metal_driver_sifive_uart0_putc
20107698 g     F .text	000000f8 __metal_driver_riscv_plic0_init
20107790 g     F .text	0000003c __metal_driver_riscv_plic0_enable
20107e2c g     F .text	00000014 __metal_driver_sifive_gpio0_output
20106d6e  w    F .text	0000007e metal_lc6_interrupt_vector_handler
2010694e g     F .text	00000006 __metal_myhart_id
20108006 g     F .text	0000008c __metal_driver_gpio_get_interrupt_id
20104cb6 g     F .text	00000074 ReLUNorm
2010697e  w    F .text	0000007e metal_software_interrupt_vector_handler
201073de g     F .text	00000004 __metal_driver_riscv_cpu_controller_interrupt_disable
20105db4 g     F .text	00000028 _close_r
20108228 g     F .text	00000004 __metal_driver_sifive_uart0_get_baud_rate
2010635e g     F .text	0000006c __metal_driver_riscv_clint0_register
80000aa4 g     O .data	00000008 __metal_dt_clint_2000000
201051d2 g     F .text	000000fe __swsetup_r
2010625e g     F .text	00000006 metal_interrupt_register_handler
2010558c g     F .text	0000009c __sfp
20105cce g     F .text	00000030 __sread
20107de4 g     F .text	00000018 __metal_driver_sifive_gpio0_enable_input
2010028c  w    F .init	00000000 secondary_main
20106954  w    F .text	0000002a metal_interrupt_vector_handler
20105e74 g     F .text	00000002 __malloc_lock
20108118 g     F .text	0000001c __metal_driver_sifive_uart0_rx_interrupt_disable
80000b58 g     O .bss	00000004 tmr_intr
20105408 g     F .text	00000064 _fflush_r
20107612 g     F .text	00000022 __metal_plic0_get_threshold
20107c34 g     F .text	0000000a __metal_driver_sifive_fe310_g000_prci_get_reg
20103d9c g     O .rodata	00000020 __sf_fake_stdin
20107378 g     F .text	00000062 __metal_local_interrupt_enable
201064ae g     F .text	0000007e __metal_driver_riscv_clint0_command_request
20105790 g     F .text	000000a8 memset
20106cf0  w    F .text	0000007e metal_lc5_interrupt_vector_handler
20104b00 g     F .text	00000198 main
80000ab0 g       .data	00000000 metal_segment_data_target_end
2010818e g     F .text	00000024 __metal_driver_sifive_uart0_set_rx_watermark
20104adc g     O .rodata	00000008 __metal_driver_vtable_sifive_fe310_g000_hfrosc
20106776 g     F .text	00000030 __metal_driver_cpu_set_sw_ipi
201067d6 g     F .text	00000030 __metal_driver_cpu_get_msip
201083ec g     F .text	00000004 metal_shutdown
80000000 g       .text	00000000 metal_segment_itim_target_end
20106834 g     F .text	00000008 __metal_driver_cpu_set_exception_pc
20107ce2 g     F .text	0000003e __metal_driver_led_toggle
201074e8 g     F .text	00000022 __metal_plic0_claim_interrupt
20108172 g     F .text	0000001c __metal_driver_sifive_uart0_get_tx_watermark
20105d82 g     F .text	00000006 __sclose
80000060  w    O .data	0000000c __metal_led_table
20107062  w    F .text	0000007e metal_lc12_interrupt_vector_handler
2010008a g     F .init	00000000 metal_mem_scrub
80000a90 g     O .data	00000004 __metal_dt_led_1
201058d6 g     F .text	000000d0 _malloc_r
2010634a g     F .text	00000004 __metal_driver_riscv_clint0_get_vector_mode
20101d5c g     O .rodata	00002000 L1_weights
20107d20 g     F .text	00000048 __metal_driver_led_enable
20100a1c g     O .rodata	00000100 input_data_1
80000a88 g     O .data	00000004 __metal_dt_prci_10008000
20106714 g     F .text	00000022 __metal_driver_cpu_timebase_get
2010786c g     F .text	00000064 __metal_driver_riscv_plic0_affinity_disable
20100000 g       .init	00000000 _enter
20106252 g     F .text	00000006 metal_cpu_get_current_hartid
201086c2 g     F .text	0000011e strcmp
2010791a g     F .text	0000003c __metal_driver_sifive_fe310_g000_hfxosc_get_rate_hz
20108400 g       .text	00000000 __metal_vector_table
20104b00 g       *ABS*	00000000 metal_segment_itim_source_start
80000a84  w    O .data	00000004 __metal_cpu_table
80000688 g     O .data	000003d0 __metal_dt_cpu_0_interrupt_controller
2010028a g     F .init	00000002 _fini
20104f38 g     F .text	0000003e iprintf
80000000 g       .text	00000000 metal_segment_lim_target_start
2010743a g     F .text	0000001c __metal_driver_riscv_plic0_get_priority
20104ddc g     F .text	00000102 display_banner
201002c8 g     F .ctors	00000036 use_hfxosc
201085d6 g     F .text	0000000a atexit
20105d88 g     F .text	0000002c _write_r
20104ede g     F .text	0000005a wait_for_timer
20108204 g     F .text	00000024 __metal_driver_sifive_uart0_getc
2010643c g     F .text	0000004e __metal_driver_riscv_clint0_disable
20105e78 g     F .text	00000110 _printf_common
80000a80 g     O .data	00000004 _impure_ptr
20106858 g     F .text	00000022 __metal_driver_cpu_mtimecmp_set
201052d0 g     F .text	00000138 __sflush_r
20107634 g     F .text	00000018 __metal_driver_riscv_plic0_get_threshold
20107958 g     F .text	0000004e __metal_driver_sifive_fe310_g000_pll_init
80000a58 g     O .data	0000000c __metal_dt_clock_5
80000b5c g     O .bss	00000004 cpu_intr
20107c3e g     F .text	0000000c __metal_driver_sifive_fe310_g000_prci_set_reg
20108480 g     F .text	00000046 __metal_driver_fixed_clock_get_rate_hz
20100b1c g     O .rodata	00000100 input_data_0
201063ee g     F .text	0000004e __metal_driver_riscv_clint0_enable
201089e0 g       *ABS*	00000000 metal_segment_data_source_start
20100134 g       .init	00000000 early_trap_vector
80001770 g       .heap	00000000 metal_segment_heap_target_end
80000078 g     O .data	0000000c __metal_dt_clock_1
800000b0 g     O .data	000005d8 __metal_dt_interrupt_controller_c000000
20105692 g     F .text	0000005c __swhatbuf_r
20107e8c g     F .text	0000001c __metal_driver_sifive_gpio0_output_clear
20106928 g     F .text	00000026 __metal_default_timer_handler
2010859c g     F .text	0000003a _write
2010752c g     F .text	0000005c __metal_plic0_handler
20106b76  w    F .text	0000007e metal_lc2_interrupt_vector_handler
201071dc  w    F .text	0000007e metal_lc15_interrupt_vector_handler
2010623c g     F .text	00000006 metal_cpu_interrupt_controller
20106258 g     F .text	00000006 metal_interrupt_init
20105cfe g     F .text	0000004e __swrite
201085ea g     F .text	00000028 exit
20105a12 g     F .text	00000294 _vfiprintf_r
20105628 g     F .text	0000006a _fwalk_reent
20100d5c g     O .rodata	00000800 L3_weights
201084c6 g     F .text	00000046 __metal_driver_fixed_clock_set_rate_hz
20104b00 g       *ABS*	00000000 metal_segment_lim_source_start
20103d7c g     O .rodata	00000020 __sf_fake_stdout
80000a98 g     O .data	00000004 __metal_dt_gpio_10012000
2010684c g     F .text	0000000c __metal_default_interrupt_handler
20106264 g     F .text	00000006 metal_interrupt_enable
201089d0 g     F .text	00000006 metal_uart_putc
20108550 g     F .text	00000014 _read
201089bc  w    F .text	00000002 metal_fini_run
20107e18 g     F .text	00000014 __metal_driver_sifive_gpio0_input
20106600 g     F .text	000000de __metal_exception_handler
20106a7a  w    F .text	0000007e metal_lc0_interrupt_vector_handler
201089d6 g     F .text	00000008 _exit
20104c98 g     F .text	0000001e timer_isr
20106736 g     F .text	00000032 __metal_driver_cpu_mtime_get
201056ee g     F .text	000000a2 __smakebuf_r
20106346 g     F .text	00000004 __metal_driver_riscv_clint0_vector_register
20105f88 g     F .text	00000276 _printf_i
80000ab0 g     O .bss	00000004 __malloc_sbrk_start
80000b60 g     O .bss	00000004 timer_isr_flag
2010715e  w    F .text	0000007e metal_lc14_interrupt_vector_handler
20104ae4 g     O .rodata	00000008 __metal_driver_vtable_sifive_fe310_g000_hfxosc
201062f4 g     F .text	00000052 __metal_driver_riscv_clint0_init
80000ab4 g     O .bss	00000004 __malloc_free_list
201002bc g     F .ctors	0000000c metal_sifive_fe310_g000_pll_init
80000b64 g     O .bss	00000004 tmr_id
20105a12 g     F .text	00000294 _vfprintf_r
2010676e g     F .text	00000004 __metal_driver_cpu_get_timer_interrupt_id
2010765a g     F .text	0000003e __metal_plic0_enable
20100088  w      .init	00000000 __register_frame_info
20107918 g     F .text	00000002 __metal_driver_sifive_fe310_g000_hfrosc_set_rate_hz
201068d8 g     F .text	00000006 __metal_driver_cpu_sw_controller_interrupt
201089ca g     F .text	00000006 metal_uart_init
80000084 g     O .data	0000000c __metal_dt_clock_3
20107588 g     F .text	00000022 __metal_plic0_set_threshold
80000a94 g     O .data	00000004 __metal_dt_led_0
20107808 g     F .text	00000064 __metal_driver_riscv_plic0_affinity_enable
2010850c g     F .text	00000014 _close
20104aec g     O .rodata	00000008 __metal_driver_vtable_sifive_fe310_g000_prci
00000000 g       *ABS*	00000000 __metal_boot_hart
20107456 g     F .text	00000086 __metal_driver_riscv_plic0_register



Disassembly of section .init:

20100000 <_enter>:
_enter():
20100000:	5ff01197          	auipc	gp,0x5ff01
20100004:	28018193          	add	gp,gp,640 # 80001280 <__global_pointer$>
20100008:	00000297          	auipc	t0,0x0
2010000c:	01828293          	add	t0,t0,24 # 20100020 <_enter+0x20>
20100010:	30529073          	csrw	mtvec,t0
20100014:	00100293          	li	t0,1
20100018:	00028463          	beqz	t0,20100020 <_enter+0x20>
2010001c:	7c105073          	csrw	0x7c1,0
20100020:	00000297          	auipc	t0,0x0
20100024:	11428293          	add	t0,t0,276 # 20100134 <early_trap_vector>
20100028:	30529073          	csrw	mtvec,t0
2010002c:	00000113          	li	sp,0
20100030:	00011463          	bnez	sp,20100038 <_enter+0x38>
20100034:	cf018113          	add	sp,gp,-784 # 80000f70 <_sp>
20100038:	f1402573          	csrr	a0,mhartid
2010003c:	4281                	li	t0,0
2010003e:	40000313          	li	t1,1024
20100042:	ff017113          	and	sp,sp,-16
20100046:	00a28563          	beq	t0,a0,20100050 <_enter+0x50>
2010004a:	911a                	add	sp,sp,t1
2010004c:	0285                	add	t0,t0,1
2010004e:	bfd5                	j	20100042 <_enter+0x42>
20100050:	00000097          	auipc	ra,0x0
20100054:	07c08093          	add	ra,ra,124 # 201000cc <__metal_before_start>
20100058:	00008363          	beqz	ra,2010005e <_enter+0x5e>
2010005c:	9082                	jalr	ra
2010005e:	f1402573          	csrr	a0,mhartid
20100062:	4581                	li	a1,0
20100064:	4601                	li	a2,0
20100066:	28f9                	jal	20100144 <_start>
20100068:	00000093          	li	ra,0
2010006c:	00008363          	beqz	ra,20100072 <_enter+0x72>
20100070:	9082                	jalr	ra
20100072:	00000297          	auipc	t0,0x0
20100076:	00c28293          	add	t0,t0,12 # 2010007e <_enter+0x7e>
2010007a:	30529073          	csrw	mtvec,t0
2010007e:	00002303          	lw	t1,0(zero) # 0 <__metal_boot_hart>
20100082:	bff5                	j	2010007e <_enter+0x7e>
20100084:	0000                	unimp
	...

20100088 <__register_frame_info>:
__register_frame_info():
20100088:	8082                	ret

2010008a <metal_mem_scrub>:
metal_mem_scrub():
2010008a:	46a1                	li	a3,8
2010008c:	3006b373          	csrrc	t1,mstatus,a3
20100090:	4291                	li	t0,4
20100092:	0055c563          	blt	a1,t0,2010009c <metal_mem_scrub+0x12>
20100096:	00357613          	and	a2,a0,3
2010009a:	ca11                	beqz	a2,201000ae <metal_mem_scrub+0x24>
2010009c:	00050023          	sb	zero,0(a0)
201000a0:	0505                	add	a0,a0,1
201000a2:	15fd                	add	a1,a1,-1
201000a4:	feb047e3          	bgtz	a1,20100092 <metal_mem_scrub+0x8>
201000a8:	30031073          	csrw	mstatus,t1
201000ac:	8082                	ret
201000ae:	00052023          	sw	zero,0(a0)
201000b2:	0511                	add	a0,a0,4
201000b4:	15f1                	add	a1,a1,-4
201000b6:	fcb04ee3          	bgtz	a1,20100092 <metal_mem_scrub+0x8>
201000ba:	30031073          	csrw	mstatus,t1
201000be:	8082                	ret

201000c0 <__metal_memory_scrub>:
__metal_memory_scrub():
201000c0:	00032023          	sw	zero,0(t1)
201000c4:	0311                	add	t1,t1,4
201000c6:	fe734de3          	blt	t1,t2,201000c0 <__metal_memory_scrub>
201000ca:	8082                	ret

201000cc <__metal_before_start>:
__metal_before_start():
201000cc:	8406                	mv	s0,ra
201000ce:	dff00297          	auipc	t0,0xdff00
201000d2:	f3228293          	add	t0,t0,-206 # 0 <__metal_boot_hart>
201000d6:	04028c63          	beqz	t0,2010012e <skip_scrub>
201000da:	dff00297          	auipc	t0,0xdff00
201000de:	f2628293          	add	t0,t0,-218 # 0 <__metal_boot_hart>
201000e2:	f14027f3          	csrr	a5,mhartid
201000e6:	46a1                	li	a3,8
201000e8:	3006b073          	csrc	mstatus,a3
201000ec:	830a                	mv	t1,sp
201000ee:	dff00397          	auipc	t2,0xdff00
201000f2:	31238393          	add	t2,t2,786 # 400 <__stack_size>
201000f6:	938a                	add	t2,t2,sp
201000f8:	00730363          	beq	t1,t2,201000fe <__metal_before_start+0x32>
201000fc:	37d1                	jal	201000c0 <__metal_memory_scrub>
201000fe:	02579863          	bne	a5,t0,2010012e <skip_scrub>
20100102:	5ff00317          	auipc	t1,0x5ff00
20100106:	efe30313          	add	t1,t1,-258 # 80000000 <impure_data>
2010010a:	5ff01397          	auipc	t2,0x5ff01
2010010e:	9a638393          	add	t2,t2,-1626 # 80000ab0 <__malloc_sbrk_start>
20100112:	00730363          	beq	t1,t2,20100118 <__metal_before_start+0x4c>
20100116:	376d                	jal	201000c0 <__metal_memory_scrub>
20100118:	5ff00317          	auipc	t1,0x5ff00
2010011c:	ee830313          	add	t1,t1,-280 # 80000000 <impure_data>
20100120:	5ff00397          	auipc	t2,0x5ff00
20100124:	ee038393          	add	t2,t2,-288 # 80000000 <impure_data>
20100128:	00730363          	beq	t1,t2,2010012e <skip_scrub>
2010012c:	3f51                	jal	201000c0 <__metal_memory_scrub>

2010012e <skip_scrub>:
skip_scrub():
2010012e:	80a2                	mv	ra,s0
20100130:	8082                	ret
	...

20100134 <early_trap_vector>:
early_trap_vector():
20100134:	342022f3          	csrr	t0,mcause
20100138:	34102373          	csrr	t1,mepc
2010013c:	343023f3          	csrr	t2,mtval
20100140:	bfd5                	j	20100134 <early_trap_vector>

20100142 <__metal_synchronize_harts>:
__metal_synchronize_harts():
20100142:	8082                	ret

20100144 <_start>:
_start():
20100144:	8406                	mv	s0,ra
20100146:	5ff01197          	auipc	gp,0x5ff01
2010014a:	13a18193          	add	gp,gp,314 # 80001280 <__global_pointer$>
2010014e:	00000293          	li	t0,0
20100152:	0c551b63          	bne	a0,t0,20100228 <_skip_init>
20100156:	00009297          	auipc	t0,0x9
2010015a:	88a28293          	add	t0,t0,-1910 # 201089e0 <metal_segment_data_source_start>
2010015e:	5ff00317          	auipc	t1,0x5ff00
20100162:	ea230313          	add	t1,t1,-350 # 80000000 <impure_data>
20100166:	83018393          	add	t2,gp,-2000 # 80000ab0 <__malloc_sbrk_start>
2010016a:	00628c63          	beq	t0,t1,20100182 <_start+0x3e>
2010016e:	00735a63          	bge	t1,t2,20100182 <_start+0x3e>
20100172:	0002a503          	lw	a0,0(t0)
20100176:	0291                	add	t0,t0,4
20100178:	00a32023          	sw	a0,0(t1)
2010017c:	0311                	add	t1,t1,4
2010017e:	fe734ae3          	blt	t1,t2,20100172 <_start+0x2e>
20100182:	00005297          	auipc	t0,0x5
20100186:	97e28293          	add	t0,t0,-1666 # 20104b00 <main>
2010018a:	5ff00317          	auipc	t1,0x5ff00
2010018e:	e7630313          	add	t1,t1,-394 # 80000000 <impure_data>
20100192:	5ff00397          	auipc	t2,0x5ff00
20100196:	e6e38393          	add	t2,t2,-402 # 80000000 <impure_data>
2010019a:	00628c63          	beq	t0,t1,201001b2 <_start+0x6e>
2010019e:	00735a63          	bge	t1,t2,201001b2 <_start+0x6e>
201001a2:	0002a503          	lw	a0,0(t0)
201001a6:	0291                	add	t0,t0,4
201001a8:	00a32023          	sw	a0,0(t1)
201001ac:	0311                	add	t1,t1,4
201001ae:	fe734ae3          	blt	t1,t2,201001a2 <_start+0x5e>
201001b2:	0000100f          	fence.i
201001b6:	00005297          	auipc	t0,0x5
201001ba:	94a28293          	add	t0,t0,-1718 # 20104b00 <main>
201001be:	5ff00317          	auipc	t1,0x5ff00
201001c2:	e4230313          	add	t1,t1,-446 # 80000000 <impure_data>
201001c6:	5ff00397          	auipc	t2,0x5ff00
201001ca:	e3a38393          	add	t2,t2,-454 # 80000000 <impure_data>
201001ce:	00628c63          	beq	t0,t1,201001e6 <_start+0xa2>
201001d2:	00735a63          	bge	t1,t2,201001e6 <_start+0xa2>
201001d6:	0002a503          	lw	a0,0(t0)
201001da:	0291                	add	t0,t0,4
201001dc:	00a32023          	sw	a0,0(t1)
201001e0:	0311                	add	t1,t1,4
201001e2:	fe734ae3          	blt	t1,t2,201001d6 <_start+0x92>
201001e6:	0000100f          	fence.i
201001ea:	83018313          	add	t1,gp,-2000 # 80000ab0 <__malloc_sbrk_start>
201001ee:	8e818393          	add	t2,gp,-1816 # 80000b68 <metal_segment_bss_target_end>
201001f2:	00735763          	bge	t1,t2,20100200 <_start+0xbc>
201001f6:	00032023          	sw	zero,0(t1)
201001fa:	0311                	add	t1,t1,4
201001fc:	fe734de3          	blt	t1,t2,201001f6 <_start+0xb2>
20100200:	83018213          	add	tp,gp,-2000 # 80000ab0 <__malloc_sbrk_start>
20100204:	c211                	beqz	a2,20100208 <_start+0xc4>
20100206:	9602                	jalr	a2
20100208:	00008517          	auipc	a0,0x8
2010020c:	40a50513          	add	a0,a0,1034 # 20108612 <__libc_fini_array>
20100210:	3c6080ef          	jal	201085d6 <atexit>
20100214:	434080ef          	jal	20108648 <__libc_init_array>
20100218:	00008517          	auipc	a0,0x8
2010021c:	7a450513          	add	a0,a0,1956 # 201089bc <metal_fini_run>
20100220:	3b6080ef          	jal	201085d6 <atexit>
20100224:	796080ef          	jal	201089ba <metal_init_run>

20100228 <_skip_init>:
_skip_init():
20100228:	3f29                	jal	20100142 <__metal_synchronize_harts>
2010022a:	56fd                	li	a3,-1
2010022c:	3046b073          	csrc	mie,a3
20100230:	3446b073          	csrc	mip,a3
20100234:	301027f3          	csrr	a5,misa
20100238:	00042737          	lui	a4,0x42
2010023c:	8f7d                	and	a4,a4,a5
2010023e:	c709                	beqz	a4,20100248 <_skip_init+0x20>
20100240:	3036b073          	csrc	mideleg,a3
20100244:	3026b073          	csrc	medeleg,a3
20100248:	00040737          	lui	a4,0x40
2010024c:	8f7d                	and	a4,a4,a5
2010024e:	c319                	beqz	a4,20100254 <_skip_init+0x2c>
20100250:	1806b073          	csrc	satp,a3
20100254:	6741                	lui	a4,0x10
20100256:	02870713          	add	a4,a4,40 # 10028 <__heap_size+0xf828>
2010025a:	8ff9                	and	a5,a5,a4
2010025c:	cb89                	beqz	a5,2010026e <_skip_init+0x46>
2010025e:	300027f3          	csrr	a5,mstatus
20100262:	6709                	lui	a4,0x2
20100264:	8fd9                	or	a5,a5,a4
20100266:	30079073          	csrw	mstatus,a5
2010026a:	00305073          	csrw	fcsr,0
2010026e:	4505                	li	a0,1
20100270:	00004597          	auipc	a1,0x4
20100274:	67058593          	add	a1,a1,1648 # 201048e0 <argv>
20100278:	00004617          	auipc	a2,0x4
2010027c:	66c60613          	add	a2,a2,1644 # 201048e4 <envp>
20100280:	2031                	jal	2010028c <secondary_main>
20100282:	368080ef          	jal	201085ea <exit>
20100286:	80a2                	mv	ra,s0
20100288:	8082                	ret

2010028a <_fini>:
_init():
2010028a:	8082                	ret

2010028c <secondary_main>:
secondary_main():
2010028c:	1141                	add	sp,sp,-16
2010028e:	c206                	sw	ra,4(sp)
20100290:	f14022f3          	csrr	t0,mhartid
20100294:	00000313          	li	t1,0
20100298:	00628563          	beq	t0,t1,201002a2 <secondary_main+0x16>
2010029c:	10500073          	wfi
201002a0:	bff5                	j	2010029c <secondary_main+0x10>
201002a2:	05f040ef          	jal	20104b00 <main>
201002a6:	4092                	lw	ra,4(sp)
201002a8:	0141                	add	sp,sp,16
201002aa:	8082                	ret

Disassembly of section .ctors:

201002bc <metal_sifive_fe310_g000_pll_init>:
metal_sifive_fe310_g000_pll_init():
201002bc:	80000537          	lui	a0,0x80000
201002c0:	06c50513          	add	a0,a0,108 # 8000006c <__metal_dt_clock_4>
201002c4:	6940706f          	j	20107958 <__metal_driver_sifive_fe310_g000_pll_init>

201002c8 <use_hfxosc>:
use_hfxosc():
201002c8:	1141                	add	sp,sp,-16
201002ca:	c226                	sw	s1,4(sp)
201002cc:	800004b7          	lui	s1,0x80000
201002d0:	c422                	sw	s0,8(sp)
201002d2:	06c48413          	add	s0,s1,108 # 8000006c <__metal_dt_clock_4>
201002d6:	4048                	lw	a0,4(s0)
201002d8:	c606                	sw	ra,12(sp)
201002da:	0ac080ef          	jal	20108386 <_metal_clock_call_all_callbacks>
201002de:	401c                	lw	a5,0(s0)
201002e0:	00f425b7          	lui	a1,0xf42
201002e4:	06c48513          	add	a0,s1,108
201002e8:	43dc                	lw	a5,4(a5)
201002ea:	40058593          	add	a1,a1,1024 # f42400 <__heap_size+0xf41c00>
201002ee:	9782                	jalr	a5
201002f0:	4408                	lw	a0,8(s0)
201002f2:	4422                	lw	s0,8(sp)
201002f4:	40b2                	lw	ra,12(sp)
201002f6:	4492                	lw	s1,4(sp)
201002f8:	0141                	add	sp,sp,16
201002fa:	08c0806f          	j	20108386 <_metal_clock_call_all_callbacks>

201002fe <metal_tty_init>:
metal_tty_init():
201002fe:	65f1                	lui	a1,0x1c
20100300:	80000537          	lui	a0,0x80000
20100304:	20058593          	add	a1,a1,512 # 1c200 <__heap_size+0x1ba00>
20100308:	09050513          	add	a0,a0,144 # 80000090 <__metal_dt_serial_10013000>
2010030c:	6be0806f          	j	201089ca <metal_uart_init>

Disassembly of section .rodata:

20100310 <input_data_3-0x50c>:
20100310:	6e49                	lui	t3,0x12
20100312:	6566                	.insn	2, 0x6566
20100314:	6572                	.insn	2, 0x6572
20100316:	636e                	.insn	2, 0x636e
20100318:	2065                	jal	201003c0 <metal_tty_init+0xc2>
2010031a:	5320666f          	jal	a2,2010684c <__metal_default_interrupt_handler>
2010031e:	6d61                	lui	s10,0x18
20100320:	6c70                	.insn	2, 0x6c70
20100322:	2065                	jal	201003ca <metal_tty_init+0xcc>
20100324:	6425                	lui	s0,0x9
20100326:	5009                	c.li	zero,-30
20100328:	6572                	.insn	2, 0x6572
2010032a:	6964                	.insn	2, 0x6964
2010032c:	6f697463          	bgeu	s2,s6,20100a14 <input_data_2+0xf8>
20100330:	3a6e                	.insn	2, 0x3a6e
20100332:	2520                	.insn	2, 0x2520
20100334:	646c                	.insn	2, 0x646c
20100336:	4c09                	li	s8,2
20100338:	6261                	lui	tp,0x18
2010033a:	6c65                	lui	s8,0x19
2010033c:	203a                	.insn	2, 0x203a
2010033e:	6425                	lui	s0,0x9
20100340:	0a09                	add	s4,s4,2
20100342:	0000                	unimp
20100344:	2020                	.insn	2, 0x2020
20100346:	2020                	.insn	2, 0x2020
20100348:	2020                	.insn	2, 0x2020
2010034a:	2020                	.insn	2, 0x2020
2010034c:	2020                	.insn	2, 0x2020
2010034e:	2020                	.insn	2, 0x2020
20100350:	2020                	.insn	2, 0x2020
20100352:	2020                	.insn	2, 0x2020
20100354:	2020                	.insn	2, 0x2020
20100356:	49464953          	.insn	4, 0x49464953
2010035a:	4556                	lw	a0,84(sp)
2010035c:	202c                	.insn	2, 0x202c
2010035e:	4e49                	li	t3,18
20100360:	00002e43          	.insn	4, 0x2e43
20100364:	2020                	.insn	2, 0x2020
20100366:	2020                	.insn	2, 0x2020
20100368:	2020                	.insn	2, 0x2020
2010036a:	2020                	.insn	2, 0x2020
2010036c:	2020                	.insn	2, 0x2020
2010036e:	3520                	.insn	2, 0x3520
20100370:	3535                	jal	2010019c <_start+0x58>
20100372:	3535                	jal	2010019e <_start+0x5a>
20100374:	3535                	jal	201001a0 <_start+0x5c>
20100376:	3535                	jal	201001a2 <_start+0x5e>
20100378:	3535                	jal	201001a4 <_start+0x60>
2010037a:	3535                	jal	201001a6 <_start+0x62>
2010037c:	3535                	jal	201001a8 <_start+0x64>
2010037e:	3535                	jal	201001aa <_start+0x66>
20100380:	3535                	jal	201001ac <_start+0x68>
20100382:	3535                	jal	201001ae <_start+0x6a>
20100384:	3535                	jal	201001b0 <_start+0x6c>
20100386:	3535                	jal	201001b2 <_start+0x6e>
20100388:	0000                	unimp
2010038a:	0000                	unimp
2010038c:	2020                	.insn	2, 0x2020
2010038e:	2020                	.insn	2, 0x2020
20100390:	2020                	.insn	2, 0x2020
20100392:	2020                	.insn	2, 0x2020
20100394:	2020                	.insn	2, 0x2020
20100396:	3535                	jal	201001c2 <_start+0x7e>
20100398:	3535                	jal	201001c4 <_start+0x80>
2010039a:	2020                	.insn	2, 0x2020
2010039c:	2020                	.insn	2, 0x2020
2010039e:	2020                	.insn	2, 0x2020
201003a0:	2020                	.insn	2, 0x2020
201003a2:	2020                	.insn	2, 0x2020
201003a4:	2020                	.insn	2, 0x2020
201003a6:	2020                	.insn	2, 0x2020
201003a8:	2020                	.insn	2, 0x2020
201003aa:	2020                	.insn	2, 0x2020
201003ac:	3520                	.insn	2, 0x3520
201003ae:	3535                	jal	201001da <_start+0x96>
201003b0:	0035                	c.nop	13
201003b2:	0000                	unimp
201003b4:	2020                	.insn	2, 0x2020
201003b6:	2020                	.insn	2, 0x2020
201003b8:	2020                	.insn	2, 0x2020
201003ba:	2020                	.insn	2, 0x2020
201003bc:	3520                	.insn	2, 0x3520
201003be:	3535                	jal	201001ea <_start+0xa6>
201003c0:	2035                	jal	201003ec <metal_tty_init+0xee>
201003c2:	2020                	.insn	2, 0x2020
201003c4:	2020                	.insn	2, 0x2020
201003c6:	2020                	.insn	2, 0x2020
201003c8:	2020                	.insn	2, 0x2020
201003ca:	2020                	.insn	2, 0x2020
201003cc:	2020                	.insn	2, 0x2020
201003ce:	2020                	.insn	2, 0x2020
201003d0:	2020                	.insn	2, 0x2020
201003d2:	2020                	.insn	2, 0x2020
201003d4:	2020                	.insn	2, 0x2020
201003d6:	3535                	jal	20100202 <_start+0xbe>
201003d8:	3535                	jal	20100204 <_start+0xc0>
201003da:	0000                	unimp
201003dc:	2020                	.insn	2, 0x2020
201003de:	2020                	.insn	2, 0x2020
201003e0:	2020                	.insn	2, 0x2020
201003e2:	2020                	.insn	2, 0x2020
201003e4:	3535                	jal	20100210 <_start+0xcc>
201003e6:	3535                	jal	20100212 <_start+0xce>
201003e8:	2020                	.insn	2, 0x2020
201003ea:	2020                	.insn	2, 0x2020
201003ec:	2020                	.insn	2, 0x2020
201003ee:	2020                	.insn	2, 0x2020
201003f0:	2020                	.insn	2, 0x2020
201003f2:	2020                	.insn	2, 0x2020
201003f4:	2020                	.insn	2, 0x2020
201003f6:	2020                	.insn	2, 0x2020
201003f8:	2020                	.insn	2, 0x2020
201003fa:	2020                	.insn	2, 0x2020
201003fc:	2020                	.insn	2, 0x2020
201003fe:	3520                	.insn	2, 0x3520
20100400:	3535                	jal	2010022c <_skip_init+0x4>
20100402:	0035                	c.nop	13
20100404:	2020                	.insn	2, 0x2020
20100406:	2020                	.insn	2, 0x2020
20100408:	2020                	.insn	2, 0x2020
2010040a:	3520                	.insn	2, 0x3520
2010040c:	3535                	jal	20100238 <_skip_init+0x10>
2010040e:	2035                	jal	2010043a <metal_tty_init+0x13c>
20100410:	2020                	.insn	2, 0x2020
20100412:	2020                	.insn	2, 0x2020
20100414:	2020                	.insn	2, 0x2020
20100416:	3535                	jal	20100242 <_skip_init+0x1a>
20100418:	3535                	jal	20100244 <_skip_init+0x1c>
2010041a:	3535                	jal	20100246 <_skip_init+0x1e>
2010041c:	3535                	jal	20100248 <_skip_init+0x20>
2010041e:	3535                	jal	2010024a <_skip_init+0x22>
20100420:	3535                	jal	2010024c <_skip_init+0x24>
20100422:	3535                	jal	2010024e <_skip_init+0x26>
20100424:	3535                	jal	20100250 <_skip_init+0x28>
20100426:	3535                	jal	20100252 <_skip_init+0x2a>
20100428:	3535                	jal	20100254 <_skip_init+0x2c>
2010042a:	3535                	jal	20100256 <_skip_init+0x2e>
2010042c:	0000                	unimp
2010042e:	0000                	unimp
20100430:	2020                	.insn	2, 0x2020
20100432:	2020                	.insn	2, 0x2020
20100434:	2020                	.insn	2, 0x2020
20100436:	3535                	jal	20100262 <_skip_init+0x3a>
20100438:	3535                	jal	20100264 <_skip_init+0x3c>
2010043a:	2020                	.insn	2, 0x2020
2010043c:	2020                	.insn	2, 0x2020
2010043e:	2020                	.insn	2, 0x2020
20100440:	3520                	.insn	2, 0x3520
20100442:	3535                	jal	2010026e <_skip_init+0x46>
20100444:	3535                	jal	20100270 <_skip_init+0x48>
20100446:	3535                	jal	20100272 <_skip_init+0x4a>
20100448:	3535                	jal	20100274 <_skip_init+0x4c>
2010044a:	3535                	jal	20100276 <_skip_init+0x4e>
2010044c:	3535                	jal	20100278 <_skip_init+0x50>
2010044e:	3535                	jal	2010027a <_skip_init+0x52>
20100450:	3535                	jal	2010027c <_skip_init+0x54>
20100452:	3535                	jal	2010027e <_skip_init+0x56>
20100454:	3535                	jal	20100280 <_skip_init+0x58>
20100456:	3535                	jal	20100282 <_skip_init+0x5a>
20100458:	0035                	c.nop	13
2010045a:	0000                	unimp
2010045c:	2020                	.insn	2, 0x2020
2010045e:	2020                	.insn	2, 0x2020
20100460:	3520                	.insn	2, 0x3520
20100462:	3535                	jal	2010028e <secondary_main+0x2>
20100464:	2035                	jal	20100490 <metal_tty_init+0x192>
20100466:	2020                	.insn	2, 0x2020
20100468:	2020                	.insn	2, 0x2020
2010046a:	2020                	.insn	2, 0x2020
2010046c:	2020                	.insn	2, 0x2020
2010046e:	2020                	.insn	2, 0x2020
20100470:	2020                	.insn	2, 0x2020
20100472:	2020                	.insn	2, 0x2020
20100474:	2020                	.insn	2, 0x2020
20100476:	2020                	.insn	2, 0x2020
20100478:	2020                	.insn	2, 0x2020
2010047a:	2020                	.insn	2, 0x2020
2010047c:	2020                	.insn	2, 0x2020
2010047e:	2020                	.insn	2, 0x2020
20100480:	2020                	.insn	2, 0x2020
20100482:	3535                	jal	201002ae <secondary_main+0x22>
20100484:	3535                	jal	201002b0 <_use_hfxosc_ptr>
20100486:	0000                	unimp
20100488:	2020                	.insn	2, 0x2020
2010048a:	2020                	.insn	2, 0x2020
2010048c:	3535                	jal	201002b8 <_metal_tty_init_ptr>
2010048e:	3535                	jal	201002ba <_metal_tty_init_ptr+0x2>
20100490:	2020                	.insn	2, 0x2020
20100492:	2020                	.insn	2, 0x2020
20100494:	2020                	.insn	2, 0x2020
20100496:	2020                	.insn	2, 0x2020
20100498:	2020                	.insn	2, 0x2020
2010049a:	2020                	.insn	2, 0x2020
2010049c:	2020                	.insn	2, 0x2020
2010049e:	2020                	.insn	2, 0x2020
201004a0:	2020                	.insn	2, 0x2020
201004a2:	2020                	.insn	2, 0x2020
201004a4:	2020                	.insn	2, 0x2020
201004a6:	2020                	.insn	2, 0x2020
201004a8:	2020                	.insn	2, 0x2020
201004aa:	2020                	.insn	2, 0x2020
201004ac:	2020                	.insn	2, 0x2020
201004ae:	3520                	.insn	2, 0x3520
201004b0:	3535                	jal	201002dc <use_hfxosc+0x14>
201004b2:	0035                	c.nop	13
201004b4:	2020                	.insn	2, 0x2020
201004b6:	3520                	.insn	2, 0x3520
201004b8:	3535                	jal	201002e4 <use_hfxosc+0x1c>
201004ba:	2035                	jal	201004e6 <metal_tty_init+0x1e8>
201004bc:	2020                	.insn	2, 0x2020
201004be:	2020                	.insn	2, 0x2020
201004c0:	2020                	.insn	2, 0x2020
201004c2:	2020                	.insn	2, 0x2020
201004c4:	2020                	.insn	2, 0x2020
201004c6:	2020                	.insn	2, 0x2020
201004c8:	2020                	.insn	2, 0x2020
201004ca:	2020                	.insn	2, 0x2020
201004cc:	2020                	.insn	2, 0x2020
201004ce:	2020                	.insn	2, 0x2020
201004d0:	2020                	.insn	2, 0x2020
201004d2:	2020                	.insn	2, 0x2020
201004d4:	2020                	.insn	2, 0x2020
201004d6:	2020                	.insn	2, 0x2020
201004d8:	2020                	.insn	2, 0x2020
201004da:	2020                	.insn	2, 0x2020
201004dc:	3535                	jal	20100308 <metal_tty_init+0xa>
201004de:	3535                	jal	2010030a <metal_tty_init+0xc>
201004e0:	0000                	unimp
201004e2:	0000                	unimp
201004e4:	2020                	.insn	2, 0x2020
201004e6:	3535                	jal	20100312 <metal_tty_init+0x14>
201004e8:	3535                	jal	20100314 <metal_tty_init+0x16>
201004ea:	3535                	jal	20100316 <metal_tty_init+0x18>
201004ec:	3535                	jal	20100318 <metal_tty_init+0x1a>
201004ee:	3535                	jal	2010031a <metal_tty_init+0x1c>
201004f0:	3535                	jal	2010031c <metal_tty_init+0x1e>
201004f2:	3535                	jal	2010031e <metal_tty_init+0x20>
201004f4:	3535                	jal	20100320 <metal_tty_init+0x22>
201004f6:	3535                	jal	20100322 <metal_tty_init+0x24>
201004f8:	3535                	jal	20100324 <metal_tty_init+0x26>
201004fa:	3535                	jal	20100326 <metal_tty_init+0x28>
201004fc:	3535                	jal	20100328 <metal_tty_init+0x2a>
201004fe:	3535                	jal	2010032a <metal_tty_init+0x2c>
20100500:	3535                	jal	2010032c <metal_tty_init+0x2e>
20100502:	2020                	.insn	2, 0x2020
20100504:	2020                	.insn	2, 0x2020
20100506:	2020                	.insn	2, 0x2020
20100508:	2020                	.insn	2, 0x2020
2010050a:	2020                	.insn	2, 0x2020
2010050c:	3535                	jal	20100338 <metal_tty_init+0x3a>
2010050e:	3535                	jal	2010033a <metal_tty_init+0x3c>
20100510:	0035                	c.nop	13
20100512:	0000                	unimp
20100514:	2020                	.insn	2, 0x2020
20100516:	3520                	.insn	2, 0x3520
20100518:	3535                	jal	20100344 <metal_tty_init+0x46>
2010051a:	3535                	jal	20100346 <metal_tty_init+0x48>
2010051c:	2020                	.insn	2, 0x2020
2010051e:	2020                	.insn	2, 0x2020
20100520:	2020                	.insn	2, 0x2020
20100522:	2020                	.insn	2, 0x2020
20100524:	2020                	.insn	2, 0x2020
20100526:	3520                	.insn	2, 0x3520
20100528:	3535                	jal	20100354 <metal_tty_init+0x56>
2010052a:	3535                	jal	20100356 <metal_tty_init+0x58>
2010052c:	3535                	jal	20100358 <metal_tty_init+0x5a>
2010052e:	3535                	jal	2010035a <metal_tty_init+0x5c>
20100530:	2020                	.insn	2, 0x2020
20100532:	2020                	.insn	2, 0x2020
20100534:	2020                	.insn	2, 0x2020
20100536:	2020                	.insn	2, 0x2020
20100538:	2020                	.insn	2, 0x2020
2010053a:	3520                	.insn	2, 0x3520
2010053c:	3535                	jal	20100368 <metal_tty_init+0x6a>
2010053e:	3535                	jal	2010036a <metal_tty_init+0x6c>
20100540:	0000                	unimp
20100542:	0000                	unimp
20100544:	2020                	.insn	2, 0x2020
20100546:	2020                	.insn	2, 0x2020
20100548:	3520                	.insn	2, 0x3520
2010054a:	3535                	jal	20100376 <metal_tty_init+0x78>
2010054c:	3535                	jal	20100378 <metal_tty_init+0x7a>
2010054e:	2020                	.insn	2, 0x2020
20100550:	2020                	.insn	2, 0x2020
20100552:	2020                	.insn	2, 0x2020
20100554:	2020                	.insn	2, 0x2020
20100556:	2020                	.insn	2, 0x2020
20100558:	3520                	.insn	2, 0x3520
2010055a:	3535                	jal	20100386 <metal_tty_init+0x88>
2010055c:	3535                	jal	20100388 <metal_tty_init+0x8a>
2010055e:	2020                	.insn	2, 0x2020
20100560:	2020                	.insn	2, 0x2020
20100562:	2020                	.insn	2, 0x2020
20100564:	2020                	.insn	2, 0x2020
20100566:	2020                	.insn	2, 0x2020
20100568:	3520                	.insn	2, 0x3520
2010056a:	3535                	jal	20100396 <metal_tty_init+0x98>
2010056c:	3535                	jal	20100398 <metal_tty_init+0x9a>
2010056e:	0000                	unimp
20100570:	2020                	.insn	2, 0x2020
20100572:	2020                	.insn	2, 0x2020
20100574:	2020                	.insn	2, 0x2020
20100576:	3520                	.insn	2, 0x3520
20100578:	3535                	jal	201003a4 <metal_tty_init+0xa6>
2010057a:	3535                	jal	201003a6 <metal_tty_init+0xa8>
2010057c:	2020                	.insn	2, 0x2020
2010057e:	2020                	.insn	2, 0x2020
20100580:	2020                	.insn	2, 0x2020
20100582:	2020                	.insn	2, 0x2020
20100584:	2020                	.insn	2, 0x2020
20100586:	3520                	.insn	2, 0x3520
20100588:	2020                	.insn	2, 0x2020
2010058a:	2020                	.insn	2, 0x2020
2010058c:	2020                	.insn	2, 0x2020
2010058e:	2020                	.insn	2, 0x2020
20100590:	2020                	.insn	2, 0x2020
20100592:	3520                	.insn	2, 0x3520
20100594:	3535                	jal	201003c0 <metal_tty_init+0xc2>
20100596:	3535                	jal	201003c2 <metal_tty_init+0xc4>
20100598:	0000                	unimp
2010059a:	0000                	unimp
2010059c:	2020                	.insn	2, 0x2020
2010059e:	2020                	.insn	2, 0x2020
201005a0:	2020                	.insn	2, 0x2020
201005a2:	2020                	.insn	2, 0x2020
201005a4:	3520                	.insn	2, 0x3520
201005a6:	3535                	jal	201003d2 <metal_tty_init+0xd4>
201005a8:	3535                	jal	201003d4 <metal_tty_init+0xd6>
201005aa:	2020                	.insn	2, 0x2020
201005ac:	2020                	.insn	2, 0x2020
201005ae:	2020                	.insn	2, 0x2020
201005b0:	2020                	.insn	2, 0x2020
201005b2:	2020                	.insn	2, 0x2020
201005b4:	2020                	.insn	2, 0x2020
201005b6:	2020                	.insn	2, 0x2020
201005b8:	2020                	.insn	2, 0x2020
201005ba:	2020                	.insn	2, 0x2020
201005bc:	3520                	.insn	2, 0x3520
201005be:	3535                	jal	201003ea <metal_tty_init+0xec>
201005c0:	3535                	jal	201003ec <metal_tty_init+0xee>
201005c2:	0000                	unimp
201005c4:	2020                	.insn	2, 0x2020
201005c6:	2020                	.insn	2, 0x2020
201005c8:	2020                	.insn	2, 0x2020
201005ca:	2020                	.insn	2, 0x2020
201005cc:	2020                	.insn	2, 0x2020
201005ce:	3520                	.insn	2, 0x3520
201005d0:	3535                	jal	201003fc <metal_tty_init+0xfe>
201005d2:	3535                	jal	201003fe <metal_tty_init+0x100>
201005d4:	2020                	.insn	2, 0x2020
201005d6:	2020                	.insn	2, 0x2020
201005d8:	2020                	.insn	2, 0x2020
201005da:	2020                	.insn	2, 0x2020
201005dc:	2020                	.insn	2, 0x2020
201005de:	2020                	.insn	2, 0x2020
201005e0:	2020                	.insn	2, 0x2020
201005e2:	3520                	.insn	2, 0x3520
201005e4:	3535                	jal	20100410 <metal_tty_init+0x112>
201005e6:	3535                	jal	20100412 <metal_tty_init+0x114>
201005e8:	0000                	unimp
201005ea:	0000                	unimp
201005ec:	2020                	.insn	2, 0x2020
201005ee:	2020                	.insn	2, 0x2020
201005f0:	2020                	.insn	2, 0x2020
201005f2:	2020                	.insn	2, 0x2020
201005f4:	2020                	.insn	2, 0x2020
201005f6:	2020                	.insn	2, 0x2020
201005f8:	3520                	.insn	2, 0x3520
201005fa:	3535                	jal	20100426 <metal_tty_init+0x128>
201005fc:	3535                	jal	20100428 <metal_tty_init+0x12a>
201005fe:	2020                	.insn	2, 0x2020
20100600:	2020                	.insn	2, 0x2020
20100602:	2020                	.insn	2, 0x2020
20100604:	2020                	.insn	2, 0x2020
20100606:	2020                	.insn	2, 0x2020
20100608:	3520                	.insn	2, 0x3520
2010060a:	3535                	jal	20100436 <metal_tty_init+0x138>
2010060c:	3535                	jal	20100438 <metal_tty_init+0x13a>
2010060e:	0000                	unimp
20100610:	2020                	.insn	2, 0x2020
20100612:	2020                	.insn	2, 0x2020
20100614:	2020                	.insn	2, 0x2020
20100616:	2020                	.insn	2, 0x2020
20100618:	2020                	.insn	2, 0x2020
2010061a:	2020                	.insn	2, 0x2020
2010061c:	2020                	.insn	2, 0x2020
2010061e:	3520                	.insn	2, 0x3520
20100620:	3535                	jal	2010044c <metal_tty_init+0x14e>
20100622:	3535                	jal	2010044e <metal_tty_init+0x150>
20100624:	2020                	.insn	2, 0x2020
20100626:	2020                	.insn	2, 0x2020
20100628:	2020                	.insn	2, 0x2020
2010062a:	3520                	.insn	2, 0x3520
2010062c:	3535                	jal	20100458 <metal_tty_init+0x15a>
2010062e:	3535                	jal	2010045a <metal_tty_init+0x15c>
20100630:	0000                	unimp
20100632:	0000                	unimp
20100634:	2020                	.insn	2, 0x2020
20100636:	2020                	.insn	2, 0x2020
20100638:	2020                	.insn	2, 0x2020
2010063a:	2020                	.insn	2, 0x2020
2010063c:	2020                	.insn	2, 0x2020
2010063e:	2020                	.insn	2, 0x2020
20100640:	2020                	.insn	2, 0x2020
20100642:	2020                	.insn	2, 0x2020
20100644:	3520                	.insn	2, 0x3520
20100646:	3535                	jal	20100472 <metal_tty_init+0x174>
20100648:	3535                	jal	20100474 <metal_tty_init+0x176>
2010064a:	2020                	.insn	2, 0x2020
2010064c:	3520                	.insn	2, 0x3520
2010064e:	3535                	jal	2010047a <metal_tty_init+0x17c>
20100650:	3535                	jal	2010047c <metal_tty_init+0x17e>
20100652:	0000                	unimp
20100654:	2020                	.insn	2, 0x2020
20100656:	2020                	.insn	2, 0x2020
20100658:	2020                	.insn	2, 0x2020
2010065a:	2020                	.insn	2, 0x2020
2010065c:	2020                	.insn	2, 0x2020
2010065e:	2020                	.insn	2, 0x2020
20100660:	2020                	.insn	2, 0x2020
20100662:	2020                	.insn	2, 0x2020
20100664:	2020                	.insn	2, 0x2020
20100666:	3520                	.insn	2, 0x3520
20100668:	3535                	jal	20100494 <metal_tty_init+0x196>
2010066a:	3535                	jal	20100496 <metal_tty_init+0x198>
2010066c:	3535                	jal	20100498 <metal_tty_init+0x19a>
2010066e:	3535                	jal	2010049a <metal_tty_init+0x19c>
20100670:	0000                	unimp
20100672:	0000                	unimp
20100674:	2020                	.insn	2, 0x2020
20100676:	2020                	.insn	2, 0x2020
20100678:	2020                	.insn	2, 0x2020
2010067a:	2020                	.insn	2, 0x2020
2010067c:	2020                	.insn	2, 0x2020
2010067e:	2020                	.insn	2, 0x2020
20100680:	2020                	.insn	2, 0x2020
20100682:	2020                	.insn	2, 0x2020
20100684:	2020                	.insn	2, 0x2020
20100686:	2020                	.insn	2, 0x2020
20100688:	3520                	.insn	2, 0x3520
2010068a:	3535                	jal	201004b6 <metal_tty_init+0x1b8>
2010068c:	3535                	jal	201004b8 <metal_tty_init+0x1ba>
2010068e:	0000                	unimp
20100690:	2020                	.insn	2, 0x2020
20100692:	2020                	.insn	2, 0x2020
20100694:	2020                	.insn	2, 0x2020
20100696:	2020                	.insn	2, 0x2020
20100698:	2020                	.insn	2, 0x2020
2010069a:	2020                	.insn	2, 0x2020
2010069c:	2020                	.insn	2, 0x2020
2010069e:	2020                	.insn	2, 0x2020
201006a0:	2020                	.insn	2, 0x2020
201006a2:	2020                	.insn	2, 0x2020
201006a4:	2020                	.insn	2, 0x2020
201006a6:	3520                	.insn	2, 0x3520
201006a8:	0000                	unimp
201006aa:	0000                	unimp
201006ac:	2020                	.insn	2, 0x2020
201006ae:	2020                	.insn	2, 0x2020
201006b0:	2020                	.insn	2, 0x2020
201006b2:	2020                	.insn	2, 0x2020
201006b4:	2020                	.insn	2, 0x2020
201006b6:	2020                	.insn	2, 0x2020
201006b8:	2020                	.insn	2, 0x2020
201006ba:	5720                	lw	s0,104(a4)
201006bc:	6c65                	lui	s8,0x19
201006be:	656d6f63          	bltu	s10,s6,20100d1c <L4_weights+0x100>
201006c2:	7420                	.insn	2, 0x7420
201006c4:	6953206f          	j	20133558 <metal_segment_data_source_start+0x2ab78>
201006c8:	6946                	.insn	2, 0x6946
201006ca:	6576                	.insn	2, 0x6576
201006cc:	0021                	c.nop	8
201006ce:	0000                	unimp
201006d0:	6572                	.insn	2, 0x6572
201006d2:	0064                	add	s1,sp,12
201006d4:	444c                	lw	a1,12(s0)
201006d6:	0030                	add	a2,sp,8
201006d8:	65657267          	.insn	4, 0x65657267
201006dc:	006e                	c.slli	zero,0x1b
201006de:	0000                	unimp
201006e0:	6c62                	.insn	2, 0x6c62
201006e2:	6575                	lui	a0,0x1d
201006e4:	0000                	unimp
201006e6:	0000                	unimp
201006e8:	7441                	lui	s0,0xffff0
201006ea:	6c20                	.insn	2, 0x6c20
201006ec:	6165                	add	sp,sp,112
201006ee:	6f207473          	csrrc	s0,0x6f2,0
201006f2:	656e                	.insn	2, 0x656e
201006f4:	6f20                	.insn	2, 0x6f20
201006f6:	2066                	.insn	2, 0x2066
201006f8:	454c                	lw	a1,12(a0)
201006fa:	7344                	.insn	2, 0x7344
201006fc:	6920                	.insn	2, 0x6920
201006fe:	756e2073          	csrs	0x756,t3
20100702:	6c6c                	.insn	2, 0x6c6c
20100704:	002e                	c.slli	zero,0xb
20100706:	0000                	unimp
20100708:	20555043          	.insn	4, 0x20555043
2010070c:	756e                	.insn	2, 0x756e
2010070e:	6c6c                	.insn	2, 0x6c6c
20100710:	002e                	c.slli	zero,0xb
20100712:	0000                	unimp
20100714:	20555043          	.insn	4, 0x20555043
20100718:	6e69                	lui	t3,0x1a
2010071a:	6574                	.insn	2, 0x6574
2010071c:	7272                	.insn	2, 0x7272
2010071e:	7075                	c.lui	zero,0xffffd
20100720:	2074                	.insn	2, 0x2074
20100722:	746e6f63          	bltu	t3,t1,20100e80 <L3_weights+0x124>
20100726:	6f72                	.insn	2, 0x6f72
20100728:	6c6c                	.insn	2, 0x6c6c
2010072a:	7265                	lui	tp,0xffff9
2010072c:	6920                	.insn	2, 0x6920
2010072e:	756e2073          	csrs	0x756,t3
20100732:	6c6c                	.insn	2, 0x6c6c
20100734:	002e                	c.slli	zero,0xb
20100736:	0000                	unimp
20100738:	72617453          	.insn	4, 0x72617453
2010073c:	6974                	.insn	2, 0x6974
2010073e:	676e                	.insn	2, 0x676e
20100740:	4d20                	lw	s0,88(a0)
20100742:	494e                	lw	s2,208(sp)
20100744:	69205453          	.insn	4, 0x69205453
20100748:	666e                	.insn	2, 0x666e
2010074a:	7265                	lui	tp,0xffff9
2010074c:	6e65                	lui	t3,0x19
2010074e:	2e2e6563          	bltu	t3,sp,20100a38 <input_data_1+0x1c>
20100752:	002e                	c.slli	zero,0xb
20100754:	4954                	lw	a3,20(a0)
20100756:	454d                	li	a0,19
20100758:	2052                	.insn	2, 0x2052
2010075a:	6e69                	lui	t3,0x1a
2010075c:	6574                	.insn	2, 0x6574
2010075e:	7272                	.insn	2, 0x7272
20100760:	7075                	c.lui	zero,0xffffd
20100762:	2074                	.insn	2, 0x2074
20100764:	746e6f63          	bltu	t3,t1,20100ec2 <L3_weights+0x166>
20100768:	6f72                	.insn	2, 0x6f72
2010076a:	6c6c                	.insn	2, 0x6c6c
2010076c:	7265                	lui	tp,0xffff9
2010076e:	6920                	.insn	2, 0x6920
20100770:	6e202073          	csrr	zero,0x6e2
20100774:	6c75                	lui	s8,0x1d
20100776:	2e6c                	.insn	2, 0x2e6c
20100778:	0000                	unimp
2010077a:	0000                	unimp
2010077c:	4954                	lw	a3,20(a0)
2010077e:	454d                	li	a0,19
20100780:	2052                	.insn	2, 0x2052
20100782:	6e69                	lui	t3,0x1a
20100784:	6574                	.insn	2, 0x6574
20100786:	7272                	.insn	2, 0x7272
20100788:	7075                	c.lui	zero,0xffffd
2010078a:	2074                	.insn	2, 0x2074
2010078c:	6168                	.insn	2, 0x6168
2010078e:	646e                	.insn	2, 0x646e
20100790:	656c                	.insn	2, 0x656c
20100792:	2072                	.insn	2, 0x2072
20100794:	6572                	.insn	2, 0x6572
20100796:	74736967          	.insn	4, 0x74736967
2010079a:	6172                	.insn	2, 0x6172
2010079c:	6974                	.insn	2, 0x6974
2010079e:	66206e6f          	jal	t3,20106e00 <metal_lc7_interrupt_vector_handler+0x14>
201007a2:	6961                	lui	s2,0x18
201007a4:	656c                	.insn	2, 0x656c
201007a6:	0064                	add	s1,sp,12
201007a8:	20555043          	.insn	4, 0x20555043
201007ac:	6e69                	lui	t3,0x1a
201007ae:	6574                	.insn	2, 0x6574
201007b0:	7272                	.insn	2, 0x7272
201007b2:	7075                	c.lui	zero,0xffffd
201007b4:	2074                	.insn	2, 0x2074
201007b6:	6e65                	lui	t3,0x19
201007b8:	6261                	lui	tp,0x18
201007ba:	656c                	.insn	2, 0x656c
201007bc:	6620                	.insn	2, 0x6620
201007be:	6961                	lui	s2,0x18
201007c0:	656c                	.insn	2, 0x656c
201007c2:	0064                	add	s1,sp,12
201007c4:	2b302d23          	sw	s3,698(zero) # 2ba <__metal_chicken_bit+0x2b9>
201007c8:	0020                	add	s0,sp,8
201007ca:	0000                	unimp
201007cc:	6c68                	.insn	2, 0x6c68
201007ce:	004c                	add	a1,sp,4
201007d0:	6665                	lui	a2,0x19
201007d2:	47464567          	.insn	4, 0x47464567
201007d6:	0000                	unimp
201007d8:	3130                	.insn	2, 0x3130
201007da:	3332                	.insn	2, 0x3332
201007dc:	3534                	.insn	2, 0x3534
201007de:	3736                	.insn	2, 0x3736
201007e0:	3938                	.insn	2, 0x3938
201007e2:	4241                	li	tp,16
201007e4:	46454443          	.insn	4, 0x46454443
201007e8:	0000                	unimp
201007ea:	0000                	unimp
201007ec:	3130                	.insn	2, 0x3130
201007ee:	3332                	.insn	2, 0x3332
201007f0:	3534                	.insn	2, 0x3534
201007f2:	3736                	.insn	2, 0x3736
201007f4:	3938                	.insn	2, 0x3938
201007f6:	6261                	lui	tp,0x18
201007f8:	66656463          	bltu	a0,t1,20100e60 <L3_weights+0x104>
201007fc:	0000                	unimp
201007fe:	0000                	unimp
20100800:	444c                	lw	a1,12(s0)
20100802:	7230                	.insn	2, 0x7230
20100804:	6465                	lui	s0,0x19
20100806:	0000                	unimp
20100808:	444c                	lw	a1,12(s0)
2010080a:	6730                	.insn	2, 0x6730
2010080c:	6572                	.insn	2, 0x6572
2010080e:	6e65                	lui	t3,0x19
20100810:	0000                	unimp
20100812:	0000                	unimp
20100814:	444c                	lw	a1,12(s0)
20100816:	6230                	.insn	2, 0x6230
20100818:	756c                	.insn	2, 0x756c
2010081a:	0065                	c.nop	25

2010081c <input_data_3>:
2010081c:	ecec ecec ecec ecec ecec ecec ecec ecec     ................
2010082c:	ecec ecec ecec ecec ecec ecec ecec ecec     ................
2010083c:	ecec ecec f3ec ecf1 ecec ecec ecec ecec     ................
2010084c:	ecec faec 4e29 ee26 ecec ecec efef ecec     ....)N&.........
2010085c:	ecec 43f5 3f6d ec06 ecec f8ec 3230 ecf8     ...Cm?......02..
2010086c:	ecec 6c02 f241 ecec ecec 3bf4 5972 ec04     ...lA......;rY..
2010087c:	ecec 720a ec1b ecec ecec 7a24 f241 ecec     ...r......$zA...
2010088c:	ecec 60fe f337 ecec f4ec 7259 ec10 ecec     ...`7.....Yr....
2010089c:	ecec 2bef 2e64 f1fb 06ee 5473 ecf7 ecec     ...+d.....sT....
201008ac:	ecec f2ec 732d 4e64 4232 357f ecef ecec     ....-sdN2B.5....
201008bc:	ecec ecec 1cf3 5b4c 7f68 1c7a ecee ecec     ......L[h.z.....
201008cc:	ecec ecec edec f2f0 47ff 0872 ecec ecec     .........Gr.....
201008dc:	ecec ecec ecec ecec 13ec 2770 ecf3 ecec     ..........p'....
201008ec:	ecec ecec ecec ecec f5ec 5946 ec13 ecec     ..........FY....
201008fc:	ecec ecec ecec ecec ecec faee ecee ecec     ................
2010090c:	ecec ecec ecec ecec ecec ecec ecec ecec     ................

2010091c <input_data_2>:
2010091c:	ebeb ebeb ebeb ebeb ebeb ebeb ebeb ebeb     ................
2010092c:	ebeb ebeb ebeb ebeb ebeb ebeb ebeb ebeb     ................
2010093c:	ebeb ebeb ebeb ebeb ebeb ebeb ebeb ebeb     ................
2010094c:	ebeb ebeb ebeb f0eb 310b 0030 ebec ebeb     .........10.....
2010095c:	ebeb ebeb eceb 29fb 3e50 4638 eb00 ebeb     .......)P>8F....
2010096c:	ebeb ebeb 0aee 3a4c ee03 46f2 eb18 ebeb     ......L:...F....
2010097c:	ebeb edeb 5e1c f11d ebeb 6301 ec2f ebeb     .....^.....c/...
2010098c:	ebeb 07eb 1d57 ebed f7ec 5a41 eb07 ebeb     ....W.....AZ....
2010099c:	ebeb 37ed f243 eceb 4dfc 1e76 ebed ebeb     ...7C....Mv.....
201009ac:	ebeb 44ef f421 1d00 7f45 f448 ebeb ebeb     ...D!...E.H.....
201009bc:	ebeb 37ee 545b 264b 6f33 eb08 ebeb ebeb     ...7[TK&3o......
201009cc:	ebeb f5eb 0e10 f3f8 413e ebee ebeb ebeb     ........>A......
201009dc:	ebeb ebeb ebeb fdeb 1254 ebeb ebeb ebeb     ........T.......
201009ec:	ebeb ebeb ebeb 0eeb f344 ebeb ebeb ebeb     ........D.......
201009fc:	ebeb ebeb ebeb 08eb ef27 ebeb ebeb ebeb     ........'.......
20100a0c:	ebeb ebeb ebeb eceb ebee ebeb ebeb ebeb     ................

20100a1c <input_data_1>:
20100a1c:	ecec ecec ecec ecec ecec ecec ecec ecec     ................
20100a2c:	ecec ecec ecec ecec ecec ecec ecec ecec     ................
20100a3c:	ecec ecec ecec ecec 45fc ec06 ecec ecec     .........E......
20100a4c:	ecec ecec ecec ecec 6a05 ee2a ecec ecec     .........j*.....
20100a5c:	ecec ecec ecec ecec 771c ef32 ecec ecec     .........w2.....
20100a6c:	ecec ecec ecec f2ec 7d40 ec13 ecec ecec     ........@}......
20100a7c:	ecec ecec ecec 03ec 7963 ec0d ecec ecec     ........cy......
20100a8c:	ecec ecec ecec 21ed 6478 ecf9 ecec ecec     .......!xd......
20100a9c:	ecec ecec ecec 47f0 417e ecef ecec ecec     .......G~A......
20100aac:	ecec ecec ecec 6a06 0d70 ecec ecec ecec     .......jp.......
20100abc:	ecec ecec ecec 7d2f fd64 ecec ecec ecec     ....../}d.......
20100acc:	ecec ecec ecec 7f36 ed44 ecec ecec ecec     ......6.D.......
20100adc:	ecec ecec ecec 7735 ec2b ecec ecec ecec     ......5w+.......
20100aec:	ecec ecec ecec 3b10 ecfd ecec ecec ecec     .......;........
20100afc:	ecec ecec ecec ecec ecec ecec ecec ecec     ................
20100b0c:	ecec ecec ecec ecec ecec ecec ecec ecec     ................

20100b1c <input_data_0>:
20100b1c:	eaea eaea eaea eaea eaea eaea eaea eaea     ................
20100b2c:	eaea eaea eaea eaea eaea eaea eaea eaea     ................
20100b3c:	eaea eaea eaea eaea eaea eaea eaea eaea     ................
20100b4c:	eaea eaea 400b 061e eaf2 eaea eaea eaea     .....@..........
20100b5c:	eaea eaea 7c1c 737f fd42 eaea eaea eaea     .....|.sB.......
20100b6c:	eaea eaea 12f4 613a 467c eaea eaea eaea     ......:a|F......
20100b7c:	eaea eaea eaea f0ea 642f eaf5 eaea eaea     ......../d......
20100b8c:	eaea eaea eaea ebea 682c eaf5 eaea eaea     ........,h......
20100b9c:	eaea eaea eaea f0ea 6a44 eaf4 eaea eaea     ........Dj......
20100bac:	eaea eaea eaea f3ea 634d eaee eaea eaea     ........Mc......
20100bbc:	eaea eaea eaea f3ea 604d eaea eaea eaea     ........M`......
20100bcc:	eaea eaea eaea f3ea 604d eaea eaea eaea     ........M`......
20100bdc:	eaea eaea eaea f3ea 604d eaea eaea eaea     ........M`......
20100bec:	eaea eaea eaea efea 613e eaec eaea eaea     ........>a......
20100bfc:	eaea eaea eaea eaea 4712 eaf2 eaea eaea     .........G......
20100c0c:	eaea eaea eaea eaea f0ec eaeb eaea eaea     ................

20100c1c <L4_weights>:
20100c1c:	302b 09ab 9c39 09a8 9a18 98d8 18d0 0ba0     +0..9...........
20100c2c:	aa1a a99b 4bb3 b928 209b 11aa b8ba 8ba8     .....K(.. ......
20100c3c:	f008 8209 2a00 b29b a2c0 81bb 1a8b 0b8b     .....*..........
20100c4c:	83ba b491 9422 9c89 9d2b da98 3880 9ba2     ...."...+....8..
20100c5c:	819c b4c8 b1b3 0888 8221 b2b2 929a a289     ........!.......
20100c6c:	9a89 ab11 0989 c998 10b9 b922 0280 91a8     ..........".....
20100c7c:	a189 3801 baba baa9 3900 9a19 aa23 10b8     ...8.....9..#...
20100c8c:	a223 9ab2 b92c 8b09 a91a aa31 9919 a189     #...,.....1.....
20100c9c:	ca99 a088 1881 9102 aaa9 0108 a129 9023     ............).#.
20100cac:	8809 202a 8ca8 c992 8ac0 89a9 b92b 8828     ..* ........+.(.
20100cbc:	20b9 1a11 c2bb 18ca aa8b 8900 0ba2 90b2     . ..............
20100ccc:	1a08 890b a80a 2119 882a b1aa 8d12 3111     .......!*......1
20100cdc:	8bcc 001b b139 a0b9 909b 10c3 2a98 a38b     ....9........*..
20100cec:	b818 b000 bac9 a282 a8b3 33ba 99c3 8b98     ...........3....
20100cfc:	a113 90b1 8ab8 8928 32c2 b3ba a0b9 0a9a     ......(..2......
20100d0c:	12a1 2b09 2098 09aa 0b9b 98a8 b49b 2a99     ...+. .........*
20100d1c:	8a8b 9c18 81ca 990a 8902 3b2a 31b0 1aa2     ..........*;.1..
20100d2c:	299c 9a82 8ab1 0108 82b1 aa02 0a90 ca30     .)............0.
20100d3c:	8822 bb91 2902 4021 ac9b 8a1b b919 2a2b     "....)!@......+*
20100d4c:	8bc0 88c2 9a1a 98ab 0298 2a88 9a0b 030a     ...........*....

20100d5c <L3_weights>:
20100d5c:	921c 2022 2100 9eaa a411 b822 00f9 9880     .." .!....".....
20100d6c:	b008 0b3d b831 9389 988c 8102 002c 901c     ..=.1.......,...
20100d7c:	1925 b881 80ad a898 b001 12c8 b138 ba1b     %...........8...
20100d8c:	190c aa2a a003 3948 9a22 18b9 2fa1 0ada     ..*...H9"..../..
20100d9c:	1b83 33a8 8902 22a1 8908 a2a0 2a9b 141f     ...3...".....*..
20100dac:	8030 88c8 2190 0092 2802 8a09 a1d3 a3ac     0....!...(......
20100dbc:	0881 218a 0908 1a30 4a1a 1190 1901 a813     ...!..0..J......
20100dcc:	aa92 1100 0988 2286 330b 1300 908a a008     .......".3......
20100ddc:	3809 2220 0212 8881 9cab 00ad 18d0 a9e1     .8 "............
20100dec:	2b19 a9b1 9213 8138 1402 0913 0139 988a     .+....8.....9...
20100dfc:	1809 0258 1049 a9b9 8901 14a9 a128 0910     ..X.I.......(...
20100e0c:	1089 9000 1909 1132 1b21 9098 0060 0898     ......2.!...`...
20100e1c:	89a9 82ca a01a 1008 0aba 0a0b aa82 ab80     ................
20100e2c:	8a01 1082 108a 0a38 12a2 2930 8a43 5822     ......8...0)C."X
20100e3c:	2919 ab0f 1ba3 d803 b12a 41a0 c808 9133     .)......*..A..3.
20100e4c:	9bf2 1a99 49a1 8188 421c 3881 0283 a190     .....I...B.8....
20100e5c:	abbe 2099 1803 281c 8bba 1c9a 0980 b1f2     ... ...(........
20100e6c:	dc90 80b0 0229 3331 92b9 1802 a02e 0b4a     ....).13......J.
20100e7c:	81b2 9902 52a0 3290 9289 ac0a 0000 3208     .....R.2.......2
20100e8c:	a023 102a 1993 0399 018b 184d bac2 2318     #.*.......M....#
20100e9c:	2988 809e 2923 6182 a80b 4228 b980 88f2     .)..#).a..(B....
20100eac:	29d0 81b0 911a 8219 110a 5199 993d 8d88     .).........Q=...
20100ebc:	c10e 09ac 1c00 2200 9ada 0809 9c09 1b32     ......."......2.
20100ecc:	0088 9302 021b 010b a208 2001 0aa8 1200     ........... ....
20100edc:	98a9 caa9 0911 8829 899b 898a a810 0aa2     ......).........
20100eec:	9cb9 20a8 40d8 8103 10ca 1a18 2993 2300     ... .@.......).#
20100efc:	b289 bca2 8306 29a1 0a21 31a9 01b1 8399     .......)!..1....
20100f0c:	19a9 889a b4a0 0286 a088 8a84 98ea 888a     ................
20100f1c:	20d0 12c1 8201 4ba9 3188 ae8c ea91 220d     . .....K.1....."
20100f2c:	3910 1211 9018 f80d 8ba1 823a 0199 a2f9     .9........:.....
20100f3c:	2892 a8ac 001c 0280 c1c3 0198 2003 0c1a     .(........... ..
20100f4c:	982a c328 a190 2849 8088 9b80 fe01 310a     *.(...I(.......1
20100f5c:	992d 1a92 d8ab 1c1b 9a11 5928 2d91 a912     -.........(Y.-..
20100f6c:	110d 9a99 b20a a083 8099 d081 4100 0282     .............A..
20100f7c:	aa46 a040 2998 c312 b100 0204 930a 8a38     F.@..)........8.
20100f8c:	a390 a999 19b1 a0ab 3a28 30a9 1020 b898     ........(:.0 ...
20100f9c:	911d 11e1 8880 b939 11a9 db01 2191 8028     ......9......!(.
20100fac:	901b 0c02 9a1d 1292 8120 b490 89b9 0b24     ........ .....$.
20100fbc:	911a 2aa9 1890 29bc 81e1 1925 b139 831d     ...*...)..%.9...
20100fcc:	a11a c020 ca10 f03d 8c11 030d 1010 a0cd     .. ...=.........
20100fdc:	9a1e 0a32 1889 da8c 9508 4804 922d 2909     ..2........H-..)
20100fec:	9819 0999 281a 0839 2118 938a 109a 831d     .....(9..!......
20100ffc:	0312 c0b2 0822 01aa d291 23a2 b10d 3129     ...."......#..)1
2010100c:	899b 0009 9ac4 19a9 0c22 028b 2a21 98d1     ........"...!*..
2010101c:	1928 8142 a2be 8380 82a1 8189 9088 db98     (.B.............
2010102c:	038a 8888 910b 8a29 8013 a111 0a08 2c9b     ......)........,
2010103c:	2912 ce08 22c8 9b29 a129 8300 894b 11c0     .)...").)...K...
2010104c:	398b 8a11 a988 0e21 8a2d 1aa0 1002 9090     .9....!.-.......
2010105c:	a00b bfa1 12a1 891a 0080 a880 1b0a 8033     ..............3.
2010106c:	8909 1a1d 0a81 1b29 000a 2041 ab31 1382     ......)...A 1...
2010107c:	b211 e900 0290 ac21 88a3 0420 a910 802c     ......!... ...,.
2010108c:	1c18 a822 8918 da4c aa30 019b a918 aa9b     .."...L.0.......
2010109c:	21ab af1b 4abf 9321 990a d10b b189 8000     .!...J!.........
201010ac:	80ce 8f09 29a5 4815 0808 94a9 3883 1991     .....).H.....8..
201010bc:	c6b0 8820 08be 90b2 00a9 8cb8 88b2 19b0     .. .............
201010cc:	9304 b338 a9bb 89b8 0a80 888c 098e 8908     ..8.............
201010dc:	028b 9ba2 83a8 3f09 00b2 ab1d 1b31 9481     .......?....1...
201010ec:	01a8 8e19 c99a aa91 b9aa 9280 28a4 9084     .............(..
201010fc:	a088 0d49 88ca a938 a1a3 c918 0848 9c31     ..I...8.....H.1.
2010110c:	9431 c8ab 0d98 b8c8 0882 00b1 0a02 9201     1...............
2010111c:	11b0 800d 1a81 9803 808a cd81 a290 8a31     ..............1.
2010112c:	a2ae 1b90 2d10 59b3 2019 818c 0990 8980     .....-.Y. ......
2010113c:	aa29 8892 8933 1821 5091 1831 3028 8322     )...3.!..P1.(0".
2010114c:	da98 88a8 8a09 8398 904a 9411 9008 bc09     ........J.......
2010115c:	0221 131a 18aa 8092 9010 9908 9aa1 39d4     !..............9
2010116c:	a9c3 c3a8 9080 3180 283a 0310 1c1b a8b1     .......1:(......
2010117c:	a1aa 83a9 3828 2382 9888 3a1c 0911 3108     ....(8.#...:...1
2010118c:	2c9a 221a 1b9e b408 98b9 010b 02b2 9081     .,."............
2010119c:	821c c92c 10aa 18a4 9190 2313 c1a1 2908     ..,........#...)
201011ac:	9089 b0a9 1038 0080 2938 12aa 8a10 9b81     ....8...8)......
201011bc:	98db 1011 8199 a881 0181 ed23 1098 805b     ..........#...[.
201011cc:	805c aa29 ec18 a991 1093 8001 8119 1081     \.).............
201011dc:	1c08 3a19 80a3 9981 aa38 0139 2009 9311     ...:....8.9.. ..
201011ec:	080b 2a0b 0092 81b1 008b 20e8 3323 a293     ...*....... #3..
201011fc:	9331 1b80 4a11 dd89 138a 9004 008a 2b11     1....J.........+
2010120c:	c982 0b21 2d83 1999 8a3a 13ac cb22 9819     ..!..-..:..."...
2010121c:	90ba 129d 2100 9380 91cd ad81 12d9 308a     .....!.........0
2010122c:	2110 a192 1221 80d2 30a5 0202 03dc 8208     .!..!....0......
2010123c:	8b10 1901 0b9b a210 0131 0102 1a19 8918     ........1.......
2010124c:	1bce 0900 088a 918e 033d 13c9 a308 884b     ........=.....K.
2010125c:	af92 0829 8014 0b90 1128 b801 800b 910a     ..).....(.......
2010126c:	1002 3a1d 0000 02ea 89cc bbba 9222 b218     ...:........"...
2010127c:	8890 2031 808a 28b9 1803 ca5a 1a09 83c0     ..1 ...(..Z.....
2010128c:	9119 a028 fb02 88f0 1b90 188f 25a0 b280     ..(..........%..
2010129c:	0890 6298 a11b 89b9 108b 9820 12aa 19ba     ...b...... .....
201012ac:	0840 4021 a948 a3c1 1102 1a28 2b08 13a8     @.!@H.....(..+..
201012bc:	9201 0091 8098 4400 1802 1d2a d289 3180     .......D..*....1
201012cc:	ab00 d21a 1000 9898 91a1 d90b 34c9 aaa1     .............4..
201012dc:	3992 0289 0929 8195 a810 92fa 9480 9aca     .9..)...........
201012ec:	3098 2011 1102 181f 9192 a8a1 9a19 1fa8     .0. ............
201012fc:	81b0 1088 4922 2bab ba48 8a9c 1009 2a09     ...."I.+H......*
2010130c:	3e80 1029 1eb9 f81a 0ca3 02ab 1081 c1d9     .>).............
2010131c:	0182 0902 802c a998 2898 d001 219b 991a     ....,....(...!..
2010132c:	a329 0811 8100 3b13 1018 808a b18d 805b     )......;......[.
2010133c:	1b10 2080 00aa 192a 589a 5c10 8b89 1c1a     ... ..*..X.\....
2010134c:	381c 2a90 b92e c922 99a9 b119 2cf4 20c0     .8.*.."......,. 
2010135c:	9a91 90b9 80a1 843a 0cb0 09ae a901 04a8     ......:.........
2010136c:	8904 1292 32a1 c94f 90b2 1811 a2ac 3118     .....2O........1
2010137c:	39c8 2283 8115 4298 8980 a938 8cb0 84b9     .9."...B..8.....
2010138c:	880a 9912 0913 9200 2080 9820 02aa b18b     .........  .....
2010139c:	0c21 99c0 949b 9229 1191 3810 1132 cab2     !.....)....82...
201013ac:	840c 00a0 9309 8910 bb8e ac08 9859 1109     ............Y...
201013bc:	b048 0c13 c98b b82c 0192 01a1 29a0 0a29     H.....,......)).
201013cc:	111c 108c a90b 9923 9933 8824 3002 0392     ......#.3.$..0..
201013dc:	1881 24a9 a3ab 1112 99c8 8481 aa80 0c18     ...$............
201013ec:	412b 0981 8020 ca3c 8322 0800 8b33 0cb2     +A.. .<."...3...
201013fc:	0a8a a822 80c3 5019 9998 198b 1821 b8f2     .."....P....!...
2010140c:	0aaa 0099 03b2 24a3 a8f1 1aa1 0db1 0802     .......$........
2010141c:	90b2 1980 1813 8ac1 3229 f993 11ca 000a     ........)2......
2010142c:	a393 1b10 3913 33b3 1118 09a0 9a99 a810     .....9.3........
2010143c:	080a 2900 80d2 4140 9981 c94b 8a49 84aa     ...)..@A..K.I...
2010144c:	b230 b0c8 8a09 80c0 8988 1098 23c1 c4c1     0............#..
2010145c:	19bc 3100 1a13 28c1 2c00 901b 1bf1 a2c0     ...1...(.,......
2010146c:	a819 b100 1220 1402 90ab 82a0 992a a229     .... .......*.).
2010147c:	88bb 01b0 bc31 2910 10bd 9be0 89a0 a112     ....1..)........
2010148c:	9ab0 1a80 4082 6114 1299 8880 a801 1138     .....@.a......8.
2010149c:	9210 aa22 089c 8a00 cd29 411a 9c94 09f1     ..".....)..A....
201014ac:	09a0 c109 a302 848d 0890 b991 3d1c 8922     .............=".
201014bc:	0802 0a38 1810 08e0 a100 812b 1910 8002     ..8.......+.....
201014cc:	8120 205b 0903 10ca ad19 cb8b 2281 9008      .[ ........."..
201014dc:	c013 993e 3c48 82ad 8080 1181 002d 181c     ..>.H<......-...
201014ec:	0a31 8320 0cc0 0088 0c82 28bf 1382 b9b9     1. ........(....
201014fc:	63c1 048c 1c49 1ac3 8959 c008 a9a0 b8c0     .c..I...Y.......
2010150c:	998a 2a22 1928 0b48 818e 9309 b83b bb92     .."*(.H.....;...
2010151c:	c28e 838a 3d31 0310 1baa 2b0d 1b92 0921     ....1=.....+..!.
2010152c:	c0bb ba99 1384 1092 981e 8108 09c2 a481     ................
2010153c:	299c 2c20 a182 0203 1ab2 91ba 01c8 c088     .) ,............
2010154c:	000c c1aa 9102 1400 8181 b092 141c a12c     ..............,.

2010155c <L2_weights>:
2010155c:	1aa2 0123 9a90 29c0 6b50 20a1 8109 8c93     ..#....)Pk. ....
2010156c:	2301 320a 0008 0281 4a9a 8911 c101 9fb1     .#.2.....J......
2010157c:	9c90 0089 9329 0288 9bcc ab0b 9319 9a41     ....).........A.
2010158c:	091a 8209 a0b9 2b8d 44a0 2821 8881 03fb     .......+.D!(....
2010159c:	9019 0380 1519 209b a081 0014 a09a b801     ....... ........
201015ac:	1249 b11a 2120 88cc f202 89a1 399e 98c1     I... !.......9..
201015bc:	28a2 38b0 b883 a288 a08b 0839 01da 1908     .(.8......9.....
201015cc:	900d a501 0008 c1ab c4e9 1b88 21d0 11b8     .............!..
201015dc:	3fa1 899a 1911 08b0 9129 8fab 829b aa38     .?......).....8.
201015ec:	2194 0300 1209 1112 30a8 1c03 81b1 0c20     .!.......0.... .
201015fc:	814c 1593 4228 8b1c a212 b120 c995 0412     L...(B.... .....
2010160c:	1bb0 89a3 b3d9 0390 0098 c812 1d0c b812     ................
2010161c:	0282 0088 a931 c133 b8b8 2018 3c11 a120     ....1.3.... .< .
2010162c:	e9bd aa99 1ea9 0898 c192 0b9d 9503 859a     ................
2010163c:	1348 004a 1139 9142 100b ad9a 2313 0391     H.J.9.B......#..
2010164c:	1ba1 1201 93bd aa3c 03c1 2893 d024 0018     ......<....($...
2010165c:	3139 9aaa 8820 20b8 0010 b921 c289 b921     91.. .. ..!...!.
2010166c:	23f8 89a0 cca2 3b02 9196 8001 1f2f c8b8     .#.....;..../...
2010167c:	841a a092 19a8 d83c 1103 14a6 28b1 88a8     ......<......(..
2010168c:	19e1 9199 c920 92a8 8a31 b390 8ba0 921f     .... ...1.......
2010169c:	eba1 0819 8b20 850a a892 3ab2 2f0b 2038     .... ......:./8 
201016ac:	ba00 a0a9 8959 2180 aa31 b01c 1aa8 949a     ....Y..!1.......
201016bc:	8a02 98b0 292a 0112 0290 2d81 8080 8012     ....*).....-....
201016cc:	11ca 2898 b310 039b 9221 03cb e101 a98f     ...(....!.......
201016dc:	2819 989a 001b 280a 9621 a893 a9d2 0941     .(.....(!.....A.
201016ec:	082c 3892 1020 28a1 4888 010b 888d 0889     ,..8 ..(.H......
201016fc:	1da0 383f 8993 8992 ca99 1eb9 899a 8810     ..?8............
2010170c:	908d 8a00 0000 0019 8288 0a58 2891 2081     ..........X..(. 
2010171c:	0001 9213 948a 1282 2083 c20b 2540 9b09     ......... ..@%..
2010172c:	04aa 1212 9043 1010 0833 12b2 9210 a0bb     ....C...3.......
2010173c:	3008 8119 9890 82b4 8890 b029 0081 ccb2     .0........).....
2010174c:	0719 29c2 8807 2801 a818 5b88 8982 98b2     ...)...(...[....
2010175c:	42b8 08b9 8191 199a 918b 981f c120 9dc8     .B.......... ...
2010176c:	8c31 0b32 6829 8a81 43c2 0bc0 8339 1100     1.2.)h...C..9...
2010177c:	f092 082a 893b 4102 98a8 c032 0989 8039     ..*.;..A..2...9.
2010178c:	a140 0088 49b0 baac 0a02 1109 45c1 9320     @....I.......E .
2010179c:	8848 b11a 9018 8809 f0c3 1d90 9003 a81a     H...............
201017ac:	928b f998 9211 2201 b214 9218 3019 a32c     .......".....0,.
201017bc:	b030 8b10 81c8 22a8 4902 b988 a901 21a1     0......".I.....!
201017cc:	9070 0090 7c01 2f01 9908 838b 230b 8cb1     p....|./.....#..
201017dc:	4990 b9ab a828 8048 20a9 0200 a028 802f     .I..(.H.. ..(./.
201017ec:	218c a302 9293 2929 c1a2 03b1 9a90 129a     .!....))........
201017fc:	a000 0b94 9800 0229 8a91 b330 392c 1208     ......)...0.,9..
2010180c:	f85a 90ca 4d80 1f98 9983 042f 160b 0192     Z....M..../.....
2010181c:	2913 82cd 1189 0018 a21d 0a09 93b3 3123     .)............#1
2010182c:	4021 8a88 13c8 80b0 1991 1196 a2b9 890b     !@..............
2010183c:	9089 080a da28 8121 0cba 9848 1d20 911c     ....(.!...H. ...
2010184c:	028a a032 81a4 c328 a918 0330 1c89 1398     ..2...(...0.....
2010185c:	8278 9680 3400 0b1c 8290 1182 da97 a193     x....4..........
2010186c:	0ba2 8c81 0190 84c8 1a80 cb82 0a2b 0831     ............+.1.
2010187c:	a08f 000a 8881 9995 2b2a b882 1e8a fc9a     ........*+......
2010188c:	0380 0850 c01a 3008 8818 8900 1822 a281     ..P....0...."...
2010189c:	a951 80a1 8538 0df2 298a 8108 c816 dc28     Q...8....)....(.
201018ac:	2188 0102 0083 898b 0a0a b5b8 8901 8bc1     .!..............
201018bc:	3189 2ad4 2ba0 a919 c490 2210 84a9 a8b2     .1.*.+....."....
201018cc:	8208 a882 1190 19f1 088a 1080 2301 081b     .............#..
201018dc:	a988 b005 bb00 1281 19c3 21c8 0949 b98f     ...........!I...
201018ec:	a188 241a 0b13 2025 b908 121b 8980 c1a1     ...$..% ........
201018fc:	01c8 1a29 aab8 2800 3100 a13b 283b 228c     ..)....(.1;.;(."
2010190c:	d049 19cc 8a29 8b38 8238 318e 9388 8228     I...).8.8..1..(.
2010191c:	1a90 8a88 5cf9 cc82 2388 0088 810b 18b0     .....\...#......
2010192c:	9138 8898 8009 8c00 85ab 1d18 8902 3360     8.............`3
2010193c:	00ab 2001 0081 b122 1282 1108 2009 2128     ... .."...... (!
2010194c:	3989 9090 b39a aa9b 4a9f 1b22 1092 2009     .9.......J".... 
2010195c:	2ca8 8ea8 1888 2130 181b 80f8 211c 3383     .,....0!.....!.3
2010196c:	8091 28ac 80ac ac84 3092 13a9 01a0 0220     ...(.....0.... .
2010197c:	201a 391e 8120 292a 128e 914a 9112 1229     . .9 .*)..J...).
2010198c:	0890 8d22 b2e9 90a1 0008 c110 9f18 2120     .."........... !
2010199c:	8d2b 9183 1618 2129 8318 c898 8295 0382     +.....)!........
201019ac:	3901 0232 10a8 9101 22b0 8112 8a91 9929     .92......"....).
201019bc:	2182 8028 981a 1800 8b1c 1aac 2108 599b     .!(..........!.Y
201019cc:	2890 038a 13d8 1121 3c01 0a80 9822 4918     .(....!..<.."..I
201019dc:	19a2 008e a834 2010 3d2d 8c99 8a9a 3129     ....4.. -=....)1
201019ec:	0a90 8908 a8a8 f888 2200 1102 8e83 3098     .........".....0
201019fc:	c02e 00a3 84b9 5f29 0994 0130 b013 53b9     ......)_..0....S
20101a0c:	102a 88c1 c031 190a 9a4c a818 0a19 0b98     *...1...L.......
20101a1c:	1498 ab51 b09b 1891 4c18 20b1 8839 89aa     ..Q......L. 9...
20101a2c:	8389 1c88 8180 0919 0d21 8208 b269 89a8     ........!...i...
20101a3c:	1c29 1c1a 1888 8913 d199 ac1f 8041 031e     )...........A...
20101a4c:	1199 1ca0 91c8 3a20 90a9 3fa8 8812 aa81     ...... :...?....
20101a5c:	0880 a014 9903 9901 3887 052a 0948 88a0     .........8*.H...
20101a6c:	a180 101a 9e7d 8228 83c1 98b9 ab31 1801     ....}.(.....1...
20101a7c:	98cd 1981 1c90 1aa6 4818 a011 2b8d bd01     .........H...+..
20101a8c:	8041 8821 015a 1289 008b 8090 a893 ab28     A.!.Z.........(.
20101a9c:	a0a9 0138 103a 3a8b b20a 8910 1c10 bba0     ..8.:..:........
20101aac:	8e60 42a2 78c8 8828 0220 d9a0 a600 1208     `..B.x(. .......
20101abc:	9193 282d 940e 79a8 0b2c 0100 0909 888b     ..-(...y,.......
20101acc:	b2e0 4898 ab59 3c13 28b4 b000 8aa9 9992     ...HY..<.(......
20101adc:	0898 89da 4938 1128 13b1 8204 00e8 b102     ....8I(.........
20101aec:	a181 1b13 8010 fbeb 0003 01a0 88a1 a8f9     ................
20101afc:	2390 3881 8cc2 0cd2 2810 1008 821b 9b90     .#.8.....(......
20101b0c:	81a0 00a8 a0aa 9811 3a08 3e00 1011 8000     .........:.>....
20101b1c:	ab38 0081 a280 00f0 bb10 9888 9012 9b88     8...............
20101b2c:	3051 8188 4089 2914 0ba3 0a20 2310 99c1     Q0...@.).. ..#..
20101b3c:	0182 0834 99b0 8899 a181 125c 8648 aa91     ..4.......\.H...
20101b4c:	a99a 022a 9928 0330 b400 0801 b820 ed0a     ..*.(.0..... ...
20101b5c:	10d1 8b98 3ba9 9803 1310 2302 908b 11c8     .....;.....#....
20101b6c:	8222 1d18 0900 39e1 0e89 1aa9 0100 0120     "......9...... .
20101b7c:	8a39 989a 024a 8b82 2821 0bd1 9ab2 b93a     9...J...!(....:.
20101b8c:	3493 0141 0419 0a90 3a38 90a1 1988 9a20     .4A.....8:.... .
20101b9c:	2d00 2a9d b192 b92b 2919 80e8 99a8 229b     .-.*..+..)....."
20101bac:	19ba 1081 0389 1b21 0c82 9810 1008 38a3     ......!........8
20101bbc:	8bd2 1ab2 8098 c819 80b8 2128 0a09 1800     ..........(!....
20101bcc:	0620 00c1 4291 109a b08e 018a 92b2 01b1      ....B..........
20101bdc:	8212 80c0 188a 1901 1018 0423 b891 0080     ..........#.....
20101bec:	9251 2c38 3804 ba98 10a2 11b0 a38a 0908     Q.8,.8..........
20101bfc:	cba0 8aa1 18a9 2008 3122 22b1 0f1a 30a0     ....... "1."...0
20101c0c:	9b13 8009 114e a2a0 399a 83c1 aba1 0819     ....N....9......
20101c1c:	3330 c8d0 8060 ef31 898a 2889 8091 9328     03..`.1....(..(.
20101c2c:	1858 a821 8081 0029 8418 0999 e030 8000     X.!...).....0...
20101c3c:	1581 2b28 f929 ba81 2f19 0921 9938 102b     ..(+)..../!.8.+.
20101c4c:	1a11 2118 028a a959 0a18 99b9 9920 8992     ...!..Y..... ...
20101c5c:	9121 3b92 a8b9 004d 0980 0090 1a10 05a9     !..;..M.........
20101c6c:	af2b 02db 000c 8009 089a c209 0a80 3022     +............."0
20101c7c:	bda0 188a 1a04 a0a8 90b0 1091 018b 9c04     ................
20101c8c:	088d 4820 a882 8892 b029 8818 11a1 98f0     .. H....).......
20101c9c:	9899 c9a7 9bc8 a190 0015 94a3 3a5a 09e2     ............Z:..
20101cac:	1199 148a 0cf1 0032 8a80 1011 13b0 8390     ......2.........
20101cbc:	8839 0aa9 12a3 ca11 a095 3c90 09c1 8292     9..........<....
20101ccc:	d998 8990 9a41 8299 a88c 821d 1982 002c     ....A.........,.
20101cdc:	9990 110e f022 12ba 8c98 2eb2 0088 ac48     ....".........H.
20101cec:	328a 81ac 8380 8322 a920 8881 200a a2f0     .2....". .... ..
20101cfc:	d002 2138 89ba 9b8e 1b2b 18a8 ea30 8aa8     ..8!....+...0...
20101d0c:	a8c3 bc6c a980 9420 3928 b100 081e 0819     ..l... .(9......
20101d1c:	1898 a818 1412 1000 80b8 da80 a38c 3119     ...............1
20101d2c:	b228 a845 da50 1008 ab49 f08b a59a 9888     (.E.P...I.......
20101d3c:	8a18 b02f 8148 5208 a29c 2da1 a181 a038     ../.H..R...-..8.
20101d4c:	8aba 3288 0b99 8a18 c394 0320 ca09 80b0     ...2...... .....

20101d5c <L1_weights>:
20101d5c:	9999 ba9b 9aaa aa8a a888 9aa9 99ba 08aa     ................
20101d6c:	a811 bba9 aaaa a889 9019 bbaa a989 0a88     ................
20101d7c:	9000 a998 8a9a 009a 9888 9b80 8999 18a8     ................
20101d8c:	80b8 9801 9ab9 3080 01cc 800a 01bb 9011     .......0........
20101d9c:	448d 0133 8809 8a00 774c 0133 a80a c988     .D3.....Lw3.....
20101dac:	6759 9082 8a89 aaab 4741 8211 0900 89aa     Yg......AG......
20101dbc:	1322 0312 0121 1000 2111 8222 0230 0112     "...!....!".0...
20101dcc:	0000 a804 2319 0002 8888 9990 2089 0213     .....#....... ..
20101ddc:	1012 0080 1881 0900 1231 1110 1801 dd12     ........1.......
20101dec:	2668 0828 9a88 ff54 857b 808a cc81 fa51     h&(...T.{.....Q.
20101dfc:	b57c 8809 d811 f44c a37c 118b b133 d69f     |.....L.|...3...
20101e0c:	a079 08a9 1100 80cc cb01 0ccc 3000 1802     y............0..
20101e1c:	9808 8bca 1010 8812 2101 0903 0132 0919     .........!..2...
20101e2c:	8918 1123 0011 0980 8082 0010 8802 8088     ..#.............
20101e3c:	8901 108b 8881 1108 8092 1089 0008 8280     ................
20101e4c:	8188 8180 8890 9010 8991 8008 8088 88a8     ................
20101e5c:	4142 2342 3213 4243 1100 1211 1243 1001     BAB#.2CB....C...
20101e6c:	9212 2210 0212 0899 1012 1110 8912 99b8     ..."............
20101e7c:	1810 2080 8912 bb81 1888 0008 8000 8018     ... ............
20101e8c:	9a81 1899 8022 8009 a901 1989 1114 1199     ...."...........
20101e9c:	8019 10a9 1312 1208 0219 1989 0032 9010     ............2...
20101eac:	3542 1880 8021 1131 8011 0bea 2888 2352     B5..!.1......(R#
20101ebc:	ecb9 19de 09b8 9a89 ffff 08be dc80 ffff     ................
20101ecc:	dfff 108b c801 ffff 89aa 3100 8112 bab8     ...........1....
20101edc:	9891 1110 0188 0000 9008 0801 0008 8808     ................
20101eec:	8818 8808 0200 0088 0801 8888 0111 8198     ................
20101efc:	8088 0088 8909 8000 1000 8010 8981 9000     ................
20101f0c:	8808 1220 0011 8800 99a9 8823 0212 9900     .. .......#.....
20101f1c:	7761 8815 0808 0008 9036 9ceb 8900 1809     aw......6.......
20101f2c:	ffff acff 8888 b890 fffa 99cf 0198 0018     ................
20101f3c:	4443 0145 0800 0008 5430 0156 0098 0008     CDE.....0TV.....
20101f4c:	0890 1082 0000 8901 bb88 0009 8900 9998     ................
20101f5c:	2018 3111 8110 0888 9aaa 2108 b902 cffc     . .1.......!....
20101f6c:	fbdc 18ac 8011 fffa ffff 28cf 1981 ea90     ...........(....
20101f7c:	bcff 0abd 1081 f888 8ceb 09b0 09a0 3320     .............. 3
20101f8c:	1167 28b9 8ac9 7288 8122 280a 8888 2980     g..(...r"..(...)
20101f9c:	9089 2099 2548 8932 009a 1101 1443 8110     ... H%2.....C...
20101fac:	0180 1001 1401 0800 0222 0200 0002 0121     ........".....!.
20101fbc:	8188 1188 8822 8899 0811 1021 8343 888a     ....".....!.C...
20101fcc:	3011 1344 5452 1012 2223 1221 6522 3144     .0D.RT..#"!."eD1
20101fdc:	2423 1223 1001 1030 1109 2100 0001 8081     #$#...0....!....
20101fec:	a818 129a 8180 9110 9080 2099 8080 0808     ........... ....
20101ffc:	0100 0981 0118 0008 9089 0080 0012 0080     ................
2010200c:	0888 1980 ac81 189a 0889 0001 8921 bab8     ............!...
2010201c:	8223 0110 3533 2132 1246 0800 5463 7777     #...352!F...cTww
2010202c:	9911 8988 3421 4676 8bde 8aa9 bdc8 feed     ....!4vF........
2010203c:	089b 8cb8 ffd9 efff 0a00 99a9 bcb8 98ab     ................
2010204c:	9990 188a 8901 1009 8110 0180 1000 0181     ................
2010205c:	8802 0108 9001 429a 9a05 2000 d800 72ef     .......B... ...r
2010206c:	a9b4 8899 f821 72ff 0ac4 1888 a542 70ff     ....!..r....B..p
2010207c:	9ac3 1108 5553 7bff 10b1 8001 5323 7df4     ....SU.{....#S.}
2010208c:	8081 1189 2089 3e84 8890 18a8 89a9 8911     ..... .>........
2010209c:	0090 1800 9988 8100 0080 0021 8081 1008     ..........!.....
201020ac:	8091 8909 1118 0091 8080 0090 9089 1009     ................
201020bc:	1800 0088 8988 8181 0800 1002 9a90 8800     ................
201020cc:	8808 1080 8801 0808 0090 1810 8181 0108     ................
201020dc:	9112 9a98 98a9 0098 2533 9800 989a 2200     ........3%....."
201020ec:	4545 8002 9988 3109 4313 9825 8808 4329     EE.....1.C%...)C
201020fc:	0354 9012 2112 5754 0018 8810 4534 2145     T....!TW....4EE!
2010210c:	aacf 99a9 0120 cd92 cccb aabd 8a00 b012     .... ...........
2010211c:	b999 a9ba 889a 9880 9118 9aab 808a 8aa9     ................
2010212c:	8888 a998 8889 9889 2001 0080 aa9a 89a9     ......... ......
2010213c:	2002 0900 bca8 0809 9900 0902 8b98 8019     . ..............
2010214c:	9aa8 9888 9a98 0880 89ac a8a8 8aa9 9a8a     ................
2010215c:	2221 8891 9980 0898 3352 0910 1018 1000     !"......R3......
2010216c:	9042 8888 0121 3212 9b02 8aa9 1332 2018     B...!..2....2.. 
2010217c:	cdc2 adfe 2331 5102 ffff 9dff 8823 3389     ....1#.Q....#..3
2010218c:	ffff 8cff 9001 2280 2bc9 8982 2890 1110     .......".+...(..
2010219c:	5219 1477 9091 9089 2238 3672 9908 0809     .Rw.....8"r6....
201021ac:	0210 0211 8808 8889 9122 1000 9888 b000     ........".......
201021bc:	0808 8808 1000 9998 898a 8009 1080 8091     ................
201021cc:	9809 008a 8018 8980 8989 080a 0000 8011     ................
201021dc:	0809 9008 8988 8980 1001 8100 0008 0810     ................
201021ec:	0024 0808 0000 4222 0376 9888 2128 6433     $....."Bv...(!3d
201021fc:	3648 0081 2100 9801 2aee 8223 6400 b926     H6...!...*#..d&.
2010220c:	ddb3 809b bba8 3431 ca22 88ae ffc9 19ce     ......14".......
2010221c:	9181 9bba deba 1bfc 0190 9018 18b9 9b08     ................
2010222c:	9ba9 1012 0099 a882 8908 1011 1288 0903     ................
2010223c:	0909 8828 1808 0812 0881 0818 0008 1080     ..(.............
2010224c:	2398 8989 0990 9310 a988 8819 8918 8a80     .#..............
2010225c:	0021 1200 8000 0809 9818 0188 9812 0999     !...............
2010226c:	a810 0089 a880 10cb 9128 219b 9900 28cc     ........(..!...(
2010227c:	0888 2089 a801 23ab 098b 2300 bb81 27cf     ... ...#...#...'
2010228c:	228c 1433 fa11 77bf 1080 3332 8120 77ff     ."3....w..23 ..w
2010229c:	8882 2100 3118 7bfb 0083 0189 0001 2ca8     ...!.1.{.......,
201022ac:	2183 0881 1a01 0a01 0100 0021 1801 0110     .!........!.....
201022bc:	800a 0010 0808 0009 0989 0088 2110 0820     .............! .
201022cc:	8900 2118 9888 8890 0811 2080 0002 0801     ...!....... ....
201022dc:	99aa 0088 0810 a990 aaba 0089 3201 9892     .............2..
201022ec:	aba9 009a 7631 1556 8815 0999 7621 6776     ....1vV.....!vvg
201022fc:	0246 8898 a088 49cb 118b 0811 fdc9 ffff     F......I........
2010230c:	319a 9911 9dcb c820 0a98 888b 4288 8998     .1.... ......B..
2010231c:	8880 8998 8031 1081 9880 9909 0231 1241     ....1.......1.A.
2010232c:	1899 89a0 1111 8100 1001 0000 1011 1001     ................
2010233c:	8120 0808 0a80 1888 8988 8098 aa90 8980      ...............
2010234c:	0908 8008 9981 8881 0100 1180 8800 08a9     ................
2010235c:	0000 2218 1110 0812 0888 1200 0181 8000     ..."............
2010236c:	8180 0118 1001 9001 0888 1101 9008 a809     ................
2010237c:	0009 1280 1008 0009 8298 1009 1080 1899     ................
2010238c:	8890 1019 8a90 1099 1018 0008 0a98 021a     ................
2010239c:	120a 0800 8888 832a 089c 0988 1191 3609     ......*........6
201023ac:	11ea 1012 0082 72ba 09f5 1211 9120 7399     .......r.... ..s
201023bc:	aed5 0800 b812 749b ed84 899c cb02 520a     .......t.......R
201023cc:	fc83 18ae 9911 7529 a804 008a 9822 5529     ......)u....".)U
201023dc:	8aaa 8898 1218 9880 8bdc 8010 4310 cca1     .............C..
201023ec:	09bb 0111 3421 dfe8 23bb 0111 1328 ffe8     ....!4...#..(...
201023fc:	311d 1201 0220 ffc0 245e 1222 2110 ffb2     .1.. ...^$"..!..
2010240c:	035a 1029 0889 fe10 9038 880a 0899 a343     Z.).....8.....C.
2010241c:	a80a 8999 9808 9011 8028 80a9 8900 a8ba     ........(.......
2010242c:	0111 09b9 0020 8009 8208 8002 1220 0121     .... ....... .!.
2010243c:	2380 0101 1180 0801 2000 9100 8099 0898     .#....... ......
2010244c:	1101 8010 8088 8288 0008 9891 1808 8100     ................
2010245c:	8809 0000 1100 0022 899a 8000 1011 8811     ......".........
2010246c:	110a 1010 0011 9821 21b9 1220 0901 0088     ......!..! .....
2010247c:	1890 2280 1991 8800 0122 1118 9090 9a8a     ..."....".......
2010248c:	6403 0245 9980 2a98 bef2 0240 2321 5901     .dE....*..@.!#.Y
2010249c:	ff17 80bf 0808 1a28 f376 9bff 9080 da89     ......(.v.......
201024ac:	8779 9cef 9218 c989 132a 9ac9 8100 8000     y.......*.......
201024bc:	0011 98a1 1188 1980 9001 0081 8808 0980     ................
201024cc:	8018 0000 1888 0808 8880 0088 9018 0018     ................
201024dc:	cba9 aaaa 989b 0989 ad88 a9ab 08aa 1109     ................
201024ec:	aa91 babb 2000 1181 bc83 abaa 2118 1233     ..... .......!3.
201024fc:	0ba8 9b08 3000 8b80 018a a901 0188 dab8     .....0..........
2010250c:	2444 a823 0898 a810 0375 b922 1889 bba0     D$#.....u.".....
2010251c:	b913 bbac 8989 9bb9 ba15 a9ab 0988 1181     ................
2010252c:	3433 8988 8b99 1101 8223 8118 aa88 0988     34......#.......
2010253c:	1211 9020 8918 1081 4120 9120 0019 1222     .. ..... A ...".
2010254c:	3202 9801 0189 2634 0111 b800 199a 3521     .2....4&......!5
2010255c:	9aa8 99a9 899a 8990 9889 9a89 8808 89aa     ................
2010256c:	8911 a888 9119 8889 8122 9809 2211 0aa0     ........"...."..
2010257c:	0233 8000 1431 0002 1555 0110 3363 3233     3...1...U...c332
2010258c:	2463 1412 1232 0032 4898 9234 8018 8000     c$..2.2..H4.....
2010259c:	19a8 9112 8809 100a 0802 9819 88aa 0898     ................
201025ac:	8112 ba98 8089 8081 8880 aa99 089b 8001     ................
201025bc:	998b b9a0 0aaa b889 9988 9900 99ba 899a     ................
201025cc:	a988 ba80 baaa a899 889a baa8 898b 89a8     ................
201025dc:	0008 8889 0908 8808 1880 0100 0a80 0888     ................
201025ec:	9909 1898 1891 8889 0800 0089 9880 8800     ................
201025fc:	0098 0890 a898 8890 8908 1808 8890 9800     ................
2010260c:	1109 0081 8899 0880 aa98 0089 8a9a 9a88     ................
2010261c:	bcca 110d 9898 8180 7774 0477 0188 0001     ........tww.....
2010262c:	7777 8016 1800 3111 fdbb 98bc 8020 8112     ww.....1.... ...
2010263c:	ffec 89df 0828 8099 8131 09b8 0108 0888     ....(...1.......
2010264c:	3308 1813 0080 8081 1001 0113 0811 0808     .3..............
2010265c:	0899 0089 9889 ab98 8890 9808 9880 880a     ................
2010266c:	8888 8080 1010 8898 8800 8900 8028 8988     ............(...
2010267c:	8888 0920 2821 8880 8918 0892 0110 0810     .. .!(..........
2010268c:	8990 9bb9 2200 0028 ffff 9cfe becc ffde     ....."(.........
2010269c:	aabc aaba fffd eeff 3531 0023 cffb 80bc     ........15#.....
201026ac:	5444 3454 2298 2223 2235 2342 5743 4664     DTT4."#"5"B#CWdF
201026bc:	9181 2231 5651 8333 8221 1020 4311 0902     ..1"QV3.!. ..C..
201026cc:	0890 0010 8008 3089 0011 0801 0080 0188     .......0........
201026dc:	8180 9800 1080 1121 3241 0812 2110 2234     ......!.A2...!4"
201026ec:	1211 8112 2111 0131 1211 0223 1081 1311     .....!1...#.....
201026fc:	0101 8111 9888 0001 1021 1220 a990 1908     ........!. .....
2010270c:	1984 8808 1008 5441 8822 8901 4089 4443     ......AT"....@CD
2010271c:	5643 8911 0a98 2323 0311 9ab9 a888 88aa     CV....##........
2010272c:	aefe 9acb 9988 ccda cbba 9819 9aa8 accc     ................
2010273c:	000a 0018 9ba8 bbba 0a9b 8898 aa99 9abb     ................
2010274c:	89ac 0980 99a9 98ab 89ab 8808 aa88 89ba     ................
2010275c:	1111 2112 8802 2011 8088 1318 0211 8981     ...!... ........
2010276c:	9180 108a 8100 8118 8880 0099 1900 0012     ................
2010277c:	9990 0089 1080 1811 0111 1881 8882 0000     ................
2010278c:	8220 0080 9b80 9a81 8209 2899 bea1 9808      ..........(....
2010279c:	8881 3189 ff91 122b 0014 1080 fd91 52af     ...1..+........R
201027ac:	2476 1018 a110 0bfe 102f 2922 1100 ffc9     v$....../.")....
201027bc:	1bff 0002 1201 fd22 8fff 0000 8000 9441     ......".......A.
201027cc:	aefa 0108 0110 1418 aaa2 0219 0022 4300     ............"..C
201027dc:	9889 8800 8018 1980 098a 0899 8010 8890     ................
201027ec:	8189 1898 9880 0888 8800 0888 9812 8000     ................
201027fc:	8808 0800 0081 10a0 0800 1108 1810 1008     ................
2010280c:	0898 1180 8889 8009 1090 0900 8088 8218     ................
2010281c:	8808 1189 a900 a210 a01a 8998 9a88 b330     ..............0.
2010282c:	843d 99a9 9da9 f440 249f 9982 2bb9 f452     =.....@..$...+R.
2010283c:	53cf 1021 609a f354 2cff 2343 7198 d434     .S!..`T..,C#.q4.
2010284c:	afff 0022 4308 c347 afff 1000 3211 8145     .."..CG......2E.
2010285c:	1200 1212 2132 8081 18a9 3132 2222 8091     ....2!....21""..
2010286c:	0a00 3211 2122 0338 999a 1210 2180 1211     ...2"!8......!..
2010287c:	9199 1310 9a98 2310 1099 2808 aba9 4418     .......#...(...D
2010288c:	9c82 0889 889b c073 8902 2001 18c9 ff54     ......s.... ..T.
2010289c:	0914 1901 6af9 cc25 0822 0a90 8fe9 c845     .....j%.".....E.
201028ac:	888c 1a98 efc8 b130 b9a8 098a ff80 8a9b     ......0.........
201028bc:	9002 19a8 c991 0abb 8888 2888 8010 0a99     ...........(....
201028cc:	1899 1808 0911 1000 808a 2200 8821 b889     ..........."!...
201028dc:	0888 1010 0008 8881 0098 0110 8010 0808     ................
201028ec:	1880 0110 9810 0280 0888 1001 a080 8098     ................
201028fc:	8208 8081 8111 8111 18aa 0101 0110 8888     ................
2010290c:	2210 9801 9808 a088 2777 9ab0 0980 3212     ."......w'.....2
2010291c:	fe85 8bff 1101 6121 ffff 109f 0108 a808     ......!a........
2010292c:	19de 2255 0108 c980 5762 8013 8008 0898     ..U"....bW......
2010293c:	9b98 898a 8801 0898 8988 89aa 0890 1888     ................
2010294c:	0110 0899 8000 8a88 9099 0001 8108 9089     ................
2010295c:	9244 9ab8 aaa9 6420 0113 baa8 20ab 4544     D..... d..... DE
2010296c:	08ba baa8 110a 8453 8a82 aaaa 7629 8046     ......S.....)vF.
2010297c:	8c99 ccbb 7738 ba57 0bba abba 7720 ff87     ....8wW..... w..
2010298c:	2889 a901 6658 bd93 1011 8232 2308 9d82     .(..Xf....2..#..
2010299c:	1808 8222 3088 ac13 0000 0020 9080 9913     .."..0.... .....
201029ac:	8010 8918 9109 0010 8000 9081 9008 9880     ................
201029bc:	8888 9021 8818 9a99 0889 9a01 2898 a898     ..!..........(..
201029cc:	9188 9a88 08ab 8898 8909 9a9a 99aa 9098     ................
201029dc:	1882 2021 0001 3310 9890 0101 9a80 2339     ..! ...3......9#
201029ec:	99a8 2189 aca8 2440 88ab 2188 8ee8 8373     ...!..@$...!..s.
201029fc:	109a 2000 0ffc c675 098b 1800 8ff9 f574     ... ..u.......t.
20102a0c:	901b 8888 ceca f572 008a 8011 da81 947a     ......r.......z.
20102a1c:	0088 1100 9021 058a 8888 3089 1230 8298     ....!......00...
20102a2c:	0108 1088 1012 8801 0089 118a 1801 0080     ................
20102a3c:	8818 1128 8980 9800 9880 1280 0888 8008     ..(.............
20102a4c:	8080 1110 9982 1819 0008 2088 1002 0008     ........... ....
20102a5c:	0108 9880 a98a 9089 1300 8800 8189 1088     ................
20102a6c:	1899 8802 2018 8008 1098 a112 1010 1008     ..... ..........
20102a7c:	0199 8121 8911 0218 2288 a110 8100 8900     ..!......"......
20102a8c:	8981 9998 0182 9888 d953 9ced 0831 a801     ........S...1...
20102a9c:	166b bdf9 8880 a0a9 770f 8b02 0080 0089     k........w......
20102aac:	77ff a057 8310 0089 41dd 8034 019a 8000     .wW......A4.....
20102abc:	2108 8013 28ba a989 389a 9833 0aca 99a0     .!...(...83.....
20102acc:	208a a880 89bb 9180 0018 a888 99ba 8011     . ..............
20102adc:	09a9 1089 0010 a8a0 0990 0800 8880 aa02     ................
20102aec:	8188 0181 1001 a981 88a8 0002 1318 0888     ................
20102afc:	1108 1081 9000 0232 2199 10a1 0022 8310     ......2..!.."...
20102b0c:	1090 0090 1800 8a82 0220 9880 0818 0c98     ........ .......
20102b1c:	0121 9980 8999 2aa0 a856 08a9 8198 8cac     !......*V.......
20102b2c:	8257 888b 8118 efcb 1067 8221 9311 ffda     W.......g.!.....
20102b3c:	8236 1461 8231 cfdb 2422 1223 8321 9fdc     6.a.1..."$#.!...
20102b4c:	3311 8022 8128 afed 0901 8801 9000 bdbb     .3".(...........
20102b5c:	1020 1200 1221 8000 008c 0212 8001 ecaa      ...!...........
20102b6c:	9cff 2188 9801 ecc8 eeb0 100c 1800 8103     ...!............
20102b7c:	e057 00bf 0081 6411 2640 18eb 8a00 ae90     W......d@&......
20102b8c:	31ab 0884 8da0 a142 9883 0088 cdb8 762a     .1....B.......*v
20102b9c:	8823 18b9 aa81 0abc 0229 1818 1211 dca0     #.......).......
20102bac:	198b 1218 0213 c980 9cd9 2010 9813 2100     ........... ...!
20102bbc:	9980 1209 a911 2089 0111 3288 a883 9abb     ....... ...2....
20102bcc:	1200 1210 0822 a101 8898 0212 1120 0120     ...."....... . .
20102bdc:	1808 2120 8011 0000 08a8 2308 9822 aaa8     .. !.......#"...
20102bec:	acdd 1199 a881 efed efff 08ae 9a80 dfcb     ................
20102bfc:	ffff 08bf aa18 ffcb ffff 0aac 9111 fc00     ................
20102c0c:	0ac9 09a8 4344 2573 1344 3020 1435 2308     ....DCs%D. 05..#
20102c1c:	2311 4008 0913 20a8 0810 1188 8988 0a91     .#.@... ........
20102c2c:	9008 0119 aa01 9a88 8090 0018 9802 2088     ............... 
20102c3c:	0002 1890 8a12 1801 0000 2098 1132 8120     ........... 2. .
20102c4c:	0109 2018 3432 8108 2121 3221 4342 2233     ... 24..!!!2BC3"
20102c5c:	8888 1881 0800 8819 8988 0188 8881 8899     ................
20102c6c:	8a88 108a aa88 1088 0080 0009 80a8 9881     ................
20102c7c:	0118 088b 899a 0999 8010 1980 8000 0110     ................
20102c8c:	0ab9 8900 9800 9891 8900 0bb8 0089 0988     ................
20102c9c:	9110 0bdb 8808 8809 ddd9 2008 1880 8080     ........... ....
20102cac:	20bc 3564 0898 0000 7777 3247 1281 5009     . d5....wwG2...P
20102cbc:	7773 8135 0101 a001 acdc 09aa 1981 9188     sw5.............
20102ccc:	ffd9 09ab 8001 808a aa98 1009 1111 8100     ................
20102cdc:	2211 0001 1101 8bb8 2240 0103 4400 eff9     ."......@"...D..
20102cec:	1255 0011 5431 fff1 9067 808a 6508 efe7     U...1T..g....e..
20102cfc:	ab57 089a 20a8 df36 9a27 8988 1dca df72     W.... 6.'.....r.
20102d0c:	0a85 0900 bc91 d139 0881 8a01 8808 988a     ......9.........
20102d1c:	0080 9180 0110 1880 8081 1898 0000 1900     ................
20102d2c:	1808 0880 8008 1818 0808 0008 0880 0890     ................
20102d3c:	0000 8080 8898 0081 9988 1080 9891 0890     ................
20102d4c:	0888 1808 0980 a089 0888 1188 0880 8008     ................
20102d5c:	8080 2210 1102 0211 8908 1009 0111 0030     ..."..........0.
20102d6c:	a821 1289 8081 2801 9090 289c 0100 1980     !......(...(....
20102d7c:	0802 18a9 0211 1919 8322 10a0 1221 2caa     ........"...!..,
20102d8c:	8025 8900 0121 0fff 2980 1881 ba08 1cff     %...!....)......
20102d9c:	19a1 2010 ca88 43ff 8092 1088 ab89 60ef     ... ...C.......`
20102dac:	89e8 0029 9980 59fc 40a0 0101 b900 29b9     ..)....Y.@.....)
20102dbc:	8228 1088 b910 1928 8188 1080 8810 ba18     (.....(.........
20102dcc:	8a80 0100 0110 8002 0818 2000 1100 8882     ........... ....
20102ddc:	99ac 8aa9 9a8a aba9 bcbc 8899 aaa8 cdbb     ................
20102dec:	bbbc 8abb 0008 baa8 0139 88a8 808a 89a8     ........9.......
20102dfc:	0121 9aa0 9a18 8890 8812 989a 9998 2118     !..............!
20102e0c:	0982 9889 2289 1012 0010 0100 1190 8182     ....."..........
20102e1c:	8800 0228 a988 0991 1288 8124 b828 99ba     ..(.......$.(...
20102e2c:	1211 8988 8231 09a9 bbfe 99db 2330 dcb1     ....1.......0#..
20102e3c:	efff 89ac 2450 ca02 8a03 0001 4521 4533     ....P$......!E3E
20102e4c:	5777 8237 2289 7666 6676 9835 2888 6644     wW7.."fvvf5..(Df
20102e5c:	9881 1108 1101 3424 a924 0208 2088 2465     ......$4$.... e$
20102e6c:	0033 1000 bba0 4489 8812 0118 fff9 9fff     3......D........
20102e7c:	012c 0120 ffcd ffff 012a 8122 08b9 cc98     ,. .....*.".....
20102e8c:	1189 0108 3331 9265 1821 0100 1354 1122     ....13e.!...T.".
20102e9c:	aba1 8009 0982 0a99 9a88 8898 29b0 1920     .............) .
20102eac:	0810 1889 89b8 921a 0021 8080 9998 1188     ........!.......
20102ebc:	1208 8112 1ba8 9012 8008 0188 cba0 80aa     ................
20102ecc:	889a 0001 0001 90aa 1098 1100 8000 aaa8     ................
20102edc:	9988 8988 aaa0 aa99 989b 9aaa aba9 822a     ..............*.
20102eec:	9aab 89ab 99ba 9009 9bdc 9aab 80ba 00a9     ................
20102efc:	9bbd 999a 8ac9 98a0 a89a 8888 cbb9 bce9     ................
20102f0c:	8199 1010 eec8 cffb 4308 1222 bdba 0bba     .........C".....
20102f1c:	5311 1246 8a9a 3901 2000 0443 1442 0833     .SF....9. C.B.3.
20102f2c:	8884 8010 4661 0044 9924 9908 3641 2013     ....aFD.$...A6. 
20102f3c:	9a11 8ab9 8210 9090 0800 8999 0128 0308     ............(...
20102f4c:	1009 8908 1288 0189 1281 9888 0088 0020     .............. .
20102f5c:	8089 1800 1008 9080 8898 0088 8020 1089     ............ ...
20102f6c:	9188 0089 8980 8118 131a 8090 9992 0001     ................
20102f7c:	045b 80c9 aa00 0191 a570 8acc 0801 a8a9     [.......p.......
20102f8c:	877d 09dc 0122 d208 576f 0aa8 0033 c18a     }..."...oW..3...
20102f9c:	478f 198a 0211 0002 13ad 0009 9882 0891     .G..............
20102fac:	828b 8088 8b10 aa18 0810 8198 a801 8909     ................
20102fbc:	8118 1888 1110 1080 1090 1890 9000 0908     ................
20102fcc:	0992 1108 8810 1a08 1080 0188 8880 0080     ................
20102fdc:	0008 1210 8012 98a8 0981 1088 bb00 28ab     ...............(
20102fec:	8081 1108 a818 8cec 0819 1109 5653 9037     ............SV7.
20102ffc:	0811 0108 6331 3777 899b 1888 ffea deff     ....1cw7........
2010300c:	0081 1808 fffd 9cff 8810 1810 29ab 3464     .............)d4
2010301c:	0108 0088 2409 0113 9800 0098 0090 a908     .....$..........
2010302c:	0080 0081 0808 1002 9808 8880 8a00 0888     ................
2010303c:	0898 1010 8902 8188 8818 0808 8a02 8098     ................
2010304c:	8081 2090 0011 0a08 0080 1100 1000 1110     ... ............
2010305c:	099b 9990 98a8 bb89 2219 8003 9988 a989     ........."......
2010306c:	5775 9136 889a 0808 6777 9134 0989 5118     uW6.....wg4....Q
2010307c:	9edb 0889 9008 8100 ffff 9aff 8808 d988     ................
2010308c:	0933 99ac 080a 2000 7752 8045 8180 8980     3...... RwE.....
2010309c:	8aaa 1310 0000 0888 b889 199a 8020 8008     ............ ...
201030ac:	1110 8888 1121 8888 8881 0008 8089 9808     ....!...........
201030bc:	1888 0008 9980 818a 1800 0800 8890 0908     ................
201030cc:	0000 8880 0899 8801 8008 9981 0998 0010     ................
201030dc:	3211 2113 3232 1110 1088 3222 1001 b888     .2.!22...."2....
201030ec:	0818 2112 9001 808a 3018 3123 18a1 1991     ...!.....0#1....
201030fc:	0100 1380 0410 8880 0089 2119 0908 1101     ...........!....
2010310c:	882b 2100 1020 9212 022f 0209 3108 1412     +..! .../....1..
2010311c:	23bf 0010 3bb0 1318 28ea 8800 9cc8 6519     .#...;...(.....e
2010312c:	abb3 0a08 9aa0 71b9 9936 8abb 9a81 afcb     .......q6.......
2010313c:	1361 0ac9 8a88 ff90 431b 8aa2 0802 fda0     a........C......
2010314c:	2239 0833 8001 fda9 1319 2022 1023 db99     9"3......." #...
2010315c:	aa98 0088 0888 8120 99a0 00a9 0089 8042     ...... .......B.
2010316c:	0298 8808 1899 9824 0899 8001 0988 1020     ......$....... .
2010317c:	0899 0888 8998 b880 0981 0012 a89b 18a9     ................
2010318c:	b918 0023 10ac 3652 8bbc 8111 4328 2445     ..#...R6....(CE$
2010319c:	119f 8911 4348 9905 230f 9a80 5458 9b14     ....HC...#..XT..
201031ac:	818b aa99 4320 bc16 8008 9ab9 0019 9036     .... C........6.
201031bc:	9898 9cdb 118a a845 88aa 0a98 20a9 9353     ......E...... S.
201031cc:	8bda 8989 1988 2552 9aaa 8808 8009 1230     ......R%......0.
201031dc:	1432 a988 a999 1898 4748 aa02 a9ab ba88     2.......HG......
201031ec:	751b b924 acaa b990 669f a035 8a99 a912     .u$......f5.....
201031fc:	64ff 9121 889a 0008 75ff 9403 8208 4918     .d!......u.....I
2010320c:	77fd 0434 1008 3808 378b 1442 8a98 9808     .w4....8.7B.....
2010321c:	2429 8210 a9ba aa09 a030 8089 98a8 b890     )$......0.......
2010322c:	9010 0009 8120 9880 0080 9901 1118 0880     .... ...........
2010323c:	0818 9998 8008 1818 8080 aa98 8009 1009     ................
2010324c:	0810 a9a8 089a 0088 9a88 99ab 88b9 9881     ................
2010325c:	8898 8898 9008 0880 9980 0989 8008 9998     ................
2010326c:	0108 0888 a098 0189 8a11 9900 9888 1888     ................
2010327c:	9989 0888 8891 8080 0000 a989 0009 0988     ................
2010328c:	9988 0988 88aa 0999 11a9 98a0 aaa9 880a     ................
2010329c:	8998 9a90 aa80 08a9 8991 0899 1010 0908     ................
201032ac:	189a 000a 1122 d982 08ce 0128 4422 c824     ....".....(."D$.
201032bc:	2347 0244 2312 7765 7677 8354 1880 6640     G#D..#ewwvT...@f
201032cc:	1221 8102 ba00 009b ddef 8989 9a99 feed     !...............
201032dc:	0098 2221 1321 0110 089b 1001 1113 9808     ..!"!...........
201032ec:	9a98 3190 9982 8910 0990 1190 9b81 8098     ...1............
201032fc:	8a99 0009 1122 9181 98a0 2011 3232 8113     ...."...... 22..
2010330c:	8a95 1188 9122 411a 0898 1020 d901 429c     ...."..A.. ....B
2010331c:	0089 1080 ed92 8109 2118 0900 ff91 8330     .........!....0.
2010332c:	112a 0800 ff81 247d 8089 1081 fe81 145f     *.....}$......_.
2010333c:	1888 0891 fa80 20bf 9901 1019 d881 0adf     ....... ........
2010334c:	1222 1002 a801 19dc 1810 3222 8012 88ab     "........."2....
2010335c:	099a 0110 1018 8999 bbed 8019 8902 b999     ................
2010336c:	cfff 118a aa88 e989 3429 1212 0990 bca0     ........)4......
2010337c:	7777 2357 8990 3aa8 7431 3455 0880 1218     wwW#...:1tU4....
2010338c:	fffa 10ab 0901 1011 c933 8cec 0000 0008     ........3.......
2010339c:	3528 8981 8212 8919 0999 0821 1011 0001     (5........!.....
201033ac:	8988 1219 1080 8112 1111 1189 0000 0881     ................
201033bc:	0988 2099 9800 0808 0000 1011 a800 88a9     ... ............
201033cc:	0110 0230 9a00 9088 8898 1200 8981 0888     ..0.............
201033dc:	99aa b9aa a99b 899a 8990 bba9 abb9 988a     ................
201033ec:	aa91 9980 8999 0080 8a80 9811 998a 0898     ................
201033fc:	2001 a002 8899 9999 3090 8223 9aa8 8999     . .......0#.....
2010340c:	61fa 8312 9899 1999 7afc 3424 2298 0888     .a.......z$4."..
2010341c:	7ef8 3567 0029 2918 7cf1 3677 110a 8988     .~g5)..).|w6....
2010342c:	39b9 2455 2099 9980 1098 2342 8899 9818     .9U$. ....B#....
2010343c:	1089 8331 809a 1988 0889 9132 119a aaa8     ..1.......2.....
2010344c:	0000 a011 98ab 808a 0810 aa90 99a9 09b9     ................
2010345c:	0111 0011 0181 1108 1032 1811 8818 3188     ........2......1
2010346c:	8212 0800 2119 1111 8202 1980 1000 0882     .....!..........
2010347c:	8808 8988 0888 a990 3242 9b91 0801 0113     ........B2......
2010348c:	9077 8cdb 2211 5431 fff1 9bef 0880 3199     w...."1T.......1
2010349c:	ffff aabf a900 f890 8bff 8332 9999 ca08     ..........2.....
201034ac:	4442 8022 b188 0a89 0891 0089 8008 0991     BD".............
201034bc:	8101 9028 8880 8008 1881 1111 9900 9808     ..(.............
201034cc:	9888 0081 9080 1800 0809 1081 0811 9a88     ................
201034dc:	1918 0088 0801 0000 000b 0000 8990 a890     ................
201034ec:	089b 1020 a990 8218 10ab 1221 a908 009a     .. .......!.....
201034fc:	129a 0101 2453 8881 120b 0110 7773 0577     ....S$......sww.
2010350c:	802b 0319 fc99 dcdf 8012 0181 fffb bfff     +...............
2010351c:	0115 0121 ffec 2089 0094 1008 39cb 3224     ..!.... .....9$2
2010352c:	0801 8899 01a9 0203 8099 8099 199a 1002     ................
2010353c:	0019 0108 0989 0020 a800 0888 8818 1081     ...... .........
2010354c:	9ab0 1099 9080 2108 8010 0118 0010 1200     .......!........
2010355c:	109a 1020 1011 9a99 9bbe 1000 8011 ddca     .. .............
2010356c:	bccb 1009 9998 ca99 b8ad 080a aa88 ccba     ................
2010357c:	8014 1099 4320 6756 8155 1998 5462 7776     .... CVgU...bTvw
2010358c:	000b 0008 8800 fffa 08a9 1888 db80 9cac     ................
2010359c:	8801 0880 1900 0011 8019 10a8 0881 9998     ................
201035ac:	1098 1981 8080 1200 1091 1090 8212 9988     ................
201035bc:	8181 1090 0033 8101 8981 8180 2212 0000     ....3........"..
201035cc:	8880 1089 1212 a080 1090 2288 0000 0018     ..........."....
201035dc:	3441 8812 0908 1218 4332 0013 a988 2210     A4......2C....."
201035ec:	4331 0004 dda8 1320 3131 1133 bdba 0230     1C.... .113...0.
201035fc:	1211 2251 ffeb 322a 2104 0232 fed9 76af     ..Q"..*2.!2....v
2010360c:	1157 0221 cba9 6dff 0144 0909 9010 bffb     W.!....mD.......
2010361c:	0880 9a99 3021 fea1 0809 8980 1118 fb00     ....!0..........
2010362c:	a989 8800 8100 fa00 a998 0098 88a9 b889     ................
2010363c:	9888 0009 9a98 9a9b 8188 8808 8988 9a89     ................
2010364c:	0880 0801 a999 abaa 8989 0880 8888 a9a8     ................
2010365c:	9890 89a8 0989 0288 9901 88a9 1008 3334     ..............43
2010366c:	8210 899a 2108 8211 808a 9899 1308 0811     .....!..........
2010367c:	099a 888b 8000 9000 908a 8998 0909 8201     ................
2010368c:	b911 9889 8891 1981 a801 0019 9b90 1898     ................
2010369c:	4330 9081 ab10 0899 2332 0321 1221 3001     0C......2#!.!..0
201036ac:	a903 8321 4322 3112 9993 0100 3443 2254     ..!."C.1....C4T"
201036bc:	1023 9882 4731 0233 0088 a889 5488 a893     #...1G3......T..
201036cc:	eeea a8ae 8109 aaa8 efff aaaa 8889 edbb     ................
201036dc:	8880 0012 0101 0120 aaa3 1028 9800 4208     ...... ...(....B
201036ec:	ee94 1089 9981 2088 ff16 109b 9180 4989     ....... .......I
201036fc:	ff87 218b 0021 1d98 ff17 210c 8821 2b10     ...!!......!!..+
2010370c:	fc47 008c 1124 9900 c074 0018 9111 f880     G...$...t.......
2010371c:	a141 2221 8088 f209 983a 112a 0889 b810     A.!"....:.*.....
2010372c:	aa89 1118 8198 9990 8a01 0101 0188 0981     ................
2010373c:	a988 009b 9022 8100 0018 1980 0123 8910     ....".......#...
2010374c:	9881 1109 8112 8888 8908 0108 1011 8081     ................
2010375c:	8089 8888 8998 b890 889b 8009 0888 ba89     ................
2010376c:	10a9 0081 0018 0888 209a 8990 9810 0822     ......... ....".
2010377c:	0188 99a9 0911 0202 8209 8ba8 2020 8813     ............  ..
2010378c:	8088 0ab8 2321 9a02 98a8 a812 4243 8ff1     ....!#......CB..
2010379c:	9892 0018 4553 2ff8 8084 800a 6322 9ff6     ....SE./...."c..
201037ac:	aa05 809b 6221 cf27 a000 888a 3080 a243     ....!b'......0C.
201037bc:	a180 0809 1088 8020 9898 8999 8819 8008     ...... .........
201037cc:	2188 9999 8089 0889 1198 9909 8099 9088     .!..............
201037dc:	a88a 8a08 0089 8999 9abc a899 0989 b888     ................
201037ec:	99db 8888 2a8a 8100 1998 9989 2909 9908     .....*.......)..
201037fc:	2898 9832 1188 9888 0880 9811 8111 1880     .(2.............
2010380c:	9800 9988 8031 2188 339f 0003 0132 da90     ....1..!.3..2...
2010381c:	0dff 9813 2121 89a9 fff0 acce 1111 38a9     ....!!.........8
2010382c:	fd05 adff 9b80 399a 9244 aced 9b00 21aa     .......9D......!
2010383c:	1351 8a82 2131 4321 1212 0022 5653 1457     Q...1!!C..".SVW.
2010384c:	1212 8802 5630 3356 1100 9080 1188 0001     ....0VV3........
2010385c:	2344 8002 1909 3313 1234 8882 2800 4000     D#.....34....(.@
2010386c:	0aa1 8008 1199 1898 a9a9 0090 8998 99b8     ................
2010387c:	9a9a 8899 999a 8a80 aabb 8108 1099 c900     ................
2010388c:	3318 0234 028a a800 4765 1454 1109 3312     .34.....eGT....3
2010389c:	2315 2544 2120 2122 1131 2531 8030 9899     .#D% !"!1.1%0...
201038ac:	1210 3321 999a c08a 8988 0089 bbdb 9209     ..!3............
201038bc:	ca80 a8bc cfd9 099a eeea 8aac 8ba9 cdba     ................
201038cc:	bb9a 88aa 19a8 fd92 0008 889b 2199 b900     .............!..
201038dc:	0098 0099 0110 0120 109b 1081 0010 a233     ...... .......3.
201038ec:	229a 0082 2111 1010 229a 1011 1101 8100     ."...!..."......
201038fc:	8199 8899 1001 0011 039a 8002 2210 6320     ............." c
2010390c:	8bff 8a21 3223 6643 ffff acce 0128 4211     ..!.#2Cf....(..B
2010391c:	fcb9 9bce 1009 2098 21a0 a009 1198 0001     ....... .!......
2010392c:	0a9b 0818 8889 9a02 089a 0030 9a88 8888     ..........0.....
2010393c:	1912 1008 8890 8998 1180 89a9 aa99 809a     ................
2010394c:	1088 8908 a989 180a 8828 8099 9890 8999     ........(.......
2010395c:	2120 3221 0002 acba 0211 3120 b801 bffc      !!2...... 1....
2010396c:	0012 2318 e902 8cff c882 128a fea1 21bf     ...#...........!
2010397c:	a8a9 109a ffd8 120b 110c 20a9 effb 0012     ........... ....
2010398c:	882a 1090 0ffb 9221 890a 2109 2afb 9132     *.....!....!.*2.
2010399c:	888a 3199 18a9 a243 9009 2088 8910 8241     ...1..C.... ..A.
201039ac:	1b12 0001 9122 2212 8a13 0809 0811 0083     ....".."........
201039bc:	8010 219a 0013 88b1 0110 3099 1131 8908     ...!.......01...
201039cc:	1888 3112 1332 8122 2110 2211 2243 0254     ...12."..!."C"T.
201039dc:	9aaa aa88 ba89 baba 0998 9898 9998 b9ab     ................
201039ec:	80b9 9909 9110 8a89 aa88 8998 8108 0a89     ................
201039fc:	9088 9999 0080 9a90 8ab1 a19b 3280 0aa8     .............2..
20103a0c:	990a 9089 2399 ff92 88df 8898 4008 e555     .....#.......@U.
20103a1c:	a9c9 88a9 1002 7742 a986 a800 1011 7431     ......Bw......1t
20103a2c:	1234 8001 8230 1889 0209 0200 0522 0980     4...0......."...
20103a3c:	2010 0122 1201 8810 3088 8012 828a 8011     . "......0......
20103a4c:	1080 0012 818a 0080 2122 8a10 809a 2020     ........"!....  
20103a5c:	0888 1111 8880 8988 a988 8889 a088 8aa9     ................
20103a6c:	9900 8000 a880 9998 0018 0888 8988 9800     ................
20103a7c:	9809 8089 1099 8a98 888c 8801 2119 9983     .............!..
20103a8c:	00a8 8801 0339 9f95 9882 1018 3419 bf16     ....9........4..
20103a9c:	8000 8089 2209 ff76 118b 0999 0888 f875     ....."v.......u.
20103aac:	09bf 8ab9 2890 c773 1aba 9a92 2413 1232     .....(s......$2.
20103abc:	aa21 0909 1442 0012 8208 88a0 0232 0080     !...B.......2...
20103acc:	0501 89a9 8810 0008 2181 0890 1110 1801     .........!......
20103adc:	1342 1102 0100 0888 2463 0122 b980 2280     B.......c$"...."
20103aec:	2342 1013 9b91 2888 0801 2009 0091 1109     B#.....(... ....
20103afc:	0821 0888 89a0 1188 8a81 8000 bcea 30ba     !..............0
20103b0c:	8824 88b8 edeb 41bd 8018 10b0 aacc 9189     $......A........
20103b1c:	a80c 2108 02b9 c213 0189 4322 3109 a833     ...!......"C.13.
20103b2c:	2310 3324 1a11 2132 3466 4233 0a00 6320     .#$3..2!f43B.. c
20103b3c:	2112 3442 a990 1888 8189 1223 0a98 8910     .!B4......#.....
20103b4c:	8ab8 1111 8900 0818 9999 1108 8000 9918     ................
20103b5c:	aabd 9aaa aba9 dabc 908a a9a9 a89a a999     ................
20103b6c:	8880 9b80 99aa 018a 8888 a990 a999 9099     ................
20103b7c:	8a88 b900 9cb9 0880 abaa 980a aa89 9990     ................
20103b8c:	cefe b9ba 9232 ba81 ab90 b9a9 3764 1890     ....2.......d7..
20103b9c:	2576 0818 4564 4213 1454 8322 2121 2112     v%..dE.BT.".!!.!
20103bac:	8121 8129 0810 1000 0021 a109 8808 3010     !.).....!......0
20103bbc:	0002 98a8 8008 1000 1121 980a 0009 2321     ........!.....!#
20103bcc:	1231 9980 0888 2222 8001 aa08 10aa 1030     1.....""......0.
20103bdc:	2121 1118 1110 2801 2445 8889 1801 4010     !!.....(E$.....@
20103bec:	9c92 108b 2001 3420 ffff 09df 0800 fdaa     .....  4........
20103bfc:	afff 09aa 98a9 feba 4777 1822 88a8 5108     ........wG"....Q
20103c0c:	6777 1346 108a 4321 abcd 1318 8921 9980     wgF...!C....!...
20103c1c:	b900 88ba 8200 8100 1110 0988 8080 8880     ................
20103c2c:	9809 8020 0800 8808 0180 1810 8880 0808     .. .............
20103c3c:	8080 1100 8981 8080 9808 8021 8890 0089     ..........!.....
20103c4c:	8a90 1110 a881 0899 1198 2119 9010 aa9a     ...........!....
20103c5c:	008a 1211 0122 9811 8add 1101 0002 b120     ...."......... .
20103c6c:	99cb 2100 8a01 a140 99cd 1220 aa98 0328     ...!..@... ...(.
20103c7c:	89bd 188a 8889 34a9 89ab 0811 8aa8 22ba     .......4......."
20103c8c:	2218 2224 8180 8990 8211 1102 8108 0088     ."$"............
20103c9c:	abb8 00ac 8802 8008 9aa9 109a 0233 a002     ............3...
20103cac:	3454 2031 4521 5651 1234 0011 6500 5476     T41 !EQV4....evT
20103cbc:	8baa 089b 9bb8 8898 89ab 09aa feb0 ceff     ................
20103ccc:	9a98 1008 ba80 9b9a 0088 1210 9802 9899     ................
20103cdc:	a888 9a99 8099 0018 8356 a9a8 1088 5421     ........V.....!T
20103cec:	3575 9902 1088 4211 3777 a921 9008 3109     u5.....Bw7!....1
20103cfc:	576a 9233 9b88 aa18 32df 0466 bbaa eb0b     jW3......2f.....
20103d0c:	08cc 1555 ccb9 909c 8909 0521 aba9 9aa8     ..U.......!.....
20103d1c:	8018 8208 a09a 9898 9200 99a9 980a a081     ................
20103d2c:	b08a 8988 8229 9091 9088 99aa 8010 8310     ....)...........
20103d3c:	9108 a988 9108 0089 a898 a980 9809 0080     ................
20103d4c:	8008 aa98 9aaa 1802 8a98 8998 8aa9 8888     ................

20103d5c <__sf_fake_stderr>:
	...

20103d7c <__sf_fake_stdout>:
	...

20103d9c <__sf_fake_stdin>:
	...
20103dbc:	223c 0000 2252 0000 2212 0000 2212 0000     <"..R"..."..."..
20103dcc:	2212 0000 2212 0000 2252 0000 2212 0000     ."..."..R"..."..
20103ddc:	2212 0000 2212 0000 2212 0000 23aa 0000     ."..."..."...#..
20103dec:	22ba 0000 2348 0000 2212 0000 2212 0000     ."..H#..."..."..
20103dfc:	23da 0000 2212 0000 22ba 0000 2212 0000     .#..."..."..."..
20103e0c:	2212 0000 2350 0000                         ."..P#..

20103e14 <__metal_driver_vtable_riscv_clint0>:
20103e14:	62f4 2010 63ca 2010 634a 2010 0000 0000     .b. .c. Jc. ....
20103e24:	0000 0000 652c 2010 6548 2010 635e 2010     ....,e. He. ^c. 
20103e34:	6346 2010 63ee 2010 643c 2010 0000 0000     Fc. .c. <d. ....
	...
20103e60:	64ae 2010 62cc 2010 0000 0000 0000 0000     .d. .b. ........
	...

20103e78 <__metal_driver_vtable_cpu>:
20103e78:	6702 2010 6714 2010 6736 2010 6858 2010     .g. .g. 6g. Xh. 
20103e88:	6768 2010 676e 2010 68d8 2010 6772 2010     hg. ng. .h. rg. 
20103e98:	6776 2010 67a6 2010 67d6 2010 6806 2010     vg. .g. .g. .h. 
20103ea8:	73fe 2010 681c 2010 682e 2010 6834 2010     .s. .h. .h. 4h. 
20103eb8:	683c 2010                                   <h. 

20103ebc <__metal_driver_vtable_riscv_cpu_intc>:
20103ebc:	687a 2010 68de 2010 727c 2010 0000 0000     zh. .h. |r. ....
	...
20103ed8:	72a6 2010 0000 0000 73da 2010 73de 2010     .r. .....s. .s. 
	...
20103f08:	66fe 2010 0000 0000 0000 0000 0000 0000     .f. ............
	...

20103f20 <__metal_driver_vtable_riscv_plic0>:
20103f20:	7698 2010 0000 0000 0000 0000 0000 0000     .v. ............
	...
20103f3c:	7456 2010 0000 0000 7790 2010 77cc 2010     Vt. .....w. .w. 
	...
20103f54:	7634 2010 75aa 2010 743a 2010 7414 2010     4v. .u. :t. .t. 
	...
20103f74:	7808 2010 786c 2010 75c6 2010 764c 2010     .x. lx. .u. Lv. 

20103f84 <__metal_driver_vtable_sifive_fe310_g000_pll>:
20103f84:	7958 2010 79a6 2010 7a6a 2010               Xy. .y. jz. 

20103f90 <pll_configs>:
20103f90:	0001 0000 0020 0000 1b00 00b7 3600 016e     .... ........6n.
20103fa0:	0001 0000 001f 0000 0003 0000 003f 0000     ............?...
20103fb0:	0001 0000 0020 0000 3600 016e 6c00 02dc     .... ....6n..l..
20103fc0:	0003 0000 001f 0000 0002 0000 003f 0000     ............?...
20103fd0:	0001 0000 0010 0000 8d80 005b 1b00 00b7     ..........[.....
20103fe0:	0000 0000 001f 0000 0003 0000 003f 0000     ............?...
20103ff0:	0001 0000 0010 0000 1b00 00b7 3600 016e     .............6n.
20104000:	0001 0000 001f 0000 0002 0000 003f 0000     ............?...
20104010:	0001 0000 0010 0000 3600 016e 6c00 02dc     .........6n..l..
20104020:	0003 0000 001f 0000 0002 0000 001f 0000     ................
20104030:	0001 0000 0008 0000 8d80 005b 1b00 00b7     ..........[.....
20104040:	0000 0000 001f 0000 0003 0000 001f 0000     ................
20104050:	0001 0000 0008 0000 1b00 00b7 3600 016e     .............6n.
20104060:	0001 0000 001f 0000 0002 0000 001f 0000     ................
20104070:	0001 0000 0008 0000 3600 016e 6c00 02dc     .........6n..l..
20104080:	0003 0000 001f 0000 0002 0000 000f 0000     ................
20104090:	0001 0000 0004 0000 8d80 005b 1b00 00b7     ..........[.....
201040a0:	0000 0000 001f 0000 0003 0000 000f 0000     ................
201040b0:	0001 0000 0004 0000 1b00 00b7 3600 016e     .............6n.
201040c0:	0001 0000 001f 0000 0002 0000 000f 0000     ................
201040d0:	0001 0000 0004 0000 3600 016e 6c00 02dc     .........6n..l..
201040e0:	0003 0000 001f 0000 0002 0000 0007 0000     ................
201040f0:	0001 0000 0002 0000 8d80 005b 1b00 00b7     ..........[.....
20104100:	0000 0000 001f 0000 0002 0000 000f 0000     ................
20104110:	0001 0000 0002 0000 1b00 00b7 3600 016e     .............6n.
20104120:	0001 0000 001f 0000 0001 0000 000f 0000     ................
20104130:	0001 0000 0002 0000 3600 016e 6c00 02dc     .........6n..l..
20104140:	0003 0000 001f 0000 0001 0000 0007 0000     ................
20104150:	0002 0000 0001 0000 8d80 005b 1b00 00b7     ..........[.....
20104160:	0000 0000 001f 0000 0001 0000 0007 0000     ................
20104170:	0002 0000 0001 0000 1b00 00b7 3600 016e     .............6n.
20104180:	0001 0000 001f 0000 0001 0000 0003 0000     ................
20104190:	0002 0000 0001 0000 3600 016e 6c00 02dc     .........6n..l..
201041a0:	0003 0000 001f 0000 0003 0000 ffff ffff     ................
201041b0:	0004 0000 0001 0000 8d80 005b 1b00 00b7     ..........[.....
201041c0:	0000 0000 001f 0000 0003 0000 0000 0000     ................
201041d0:	0004 0000 0001 0000 1b00 00b7 3600 016e     .............6n.
201041e0:	0001 0000 001f 0000 0003 0000 ffff ffff     ................
201041f0:	0004 0000 0001 0000 3600 016e 6c00 02dc     .........6n..l..
20104200:	0003 0000 001f 0000 0002 0000 ffff ffff     ................
20104210:	0006 0000 0001 0000 8d80 005b c2aa 00a2     ..........[.....
20104220:	0000 0000 0023 0000 0001 0000 0002 0000     ....#...........
20104230:	0006 0000 0001 0000 c2aa 00a2 1b00 00b7     ................
20104240:	0000 0000 0017 0000 0003 0000 ffff ffff     ................
20104250:	0006 0000 0001 0000 1b00 00b7 2400 00f4     .............$..
20104260:	0001 0000 002f 0000 0003 0000 ffff ffff     ..../...........
20104270:	0006 0000 0001 0000 2400 00f4 a880 0112     .........$......
20104280:	0001 0000 0017 0000 0002 0000 ffff ffff     ................
20104290:	0006 0000 0001 0000 a880 0112 8555 0145     ............U.E.
201042a0:	0002 0000 0023 0000 0002 0000 ffff ffff     ....#...........
201042b0:	0008 0000 0001 0000 8d80 005b 1b00 00b7     ..........[.....
201042c0:	0000 0000 001f 0000 0003 0000 ffff ffff     ................
201042d0:	0008 0000 0001 0000 1b00 00b7 3600 016e     .............6n.
201042e0:	0001 0000 001f 0000 0002 0000 ffff ffff     ................
201042f0:	0008 0000 0001 0000 3600 016e 6c00 02dc     .........6n..l..
20104300:	0003 0000 001f 0000 0001 0000 ffff ffff     ................
20104310:	000a 0000 0001 0000 8d80 005b 7c00 0092     ..........[..|..
20104320:	0000 0000 0027 0000 0003 0000 ffff ffff     ....'...........
20104330:	000a 0000 0001 0000 7c00 0092 1b00 00b7     .........|......
20104340:	0000 0000 0013 0000 0002 0000 ffff ffff     ................
20104350:	000a 0000 0001 0000 1b00 00b7 f800 0124     ..............$.
20104360:	0001 0000 0027 0000 0002 0000 ffff ffff     ....'...........
20104370:	000a 0000 0001 0000 f800 0124 3600 016e     ..........$..6n.
20104380:	0001 0000 0013 0000 0001 0000 ffff ffff     ................
20104390:	000a 0000 0001 0000 3600 016e f000 0249     .........6n...I.
201043a0:	0003 0000 0027 0000 0001 0000 ffff ffff     ....'...........
201043b0:	000c 0000 0001 0000 8d80 005b 1200 007a     ..........[...z.
201043c0:	0000 0000 002f 0000 0003 0000 ffff ffff     ..../...........
201043d0:	000c 0000 0001 0000 1200 007a 1b00 00b7     ..........z.....
201043e0:	0000 0000 0017 0000 0002 0000 ffff ffff     ................
201043f0:	000c 0000 0001 0000 1b00 00b7 2400 00f4     .............$..
20104400:	0001 0000 002f 0000 0002 0000 ffff ffff     ..../...........
20104410:	000c 0000 0001 0000 2400 00f4 3600 016e     .........$...6n.
20104420:	0001 0000 0017 0000 0001 0000 ffff ffff     ................
20104430:	000c 0000 0001 0000 3600 016e c380 01c9     .........6n.....
20104440:	0003 0000 002f 0000 0001 0000 ffff ffff     ..../...........
20104450:	000c 0000 0001 0000 c380 01c9 4800 01e8     .............H..
20104460:	0003 0000 002f 0000 0001 0000 ffff ffff     ..../...........
20104470:	000e 0000 0001 0000 8d80 005b a1b6 0068     ..........[...h.
20104480:	0000 0000 0037 0000 0003 0000 ffff ffff     ....7...........
20104490:	000e 0000 0001 0000 a1b7 0068 1b00 00b7     ..........h.....
201044a0:	0000 0000 001b 0000 0002 0000 ffff ffff     ................
201044b0:	000e 0000 0001 0000 1b00 00b7 436d 00d1     ............mC..
201044c0:	0001 0000 0037 0000 0002 0000 ffff ffff     ....7...........
201044d0:	000e 0000 0001 0000 436e 00d1 3600 016e     ........nC...6n.
201044e0:	0001 0000 001b 0000 0001 0000 ffff ffff     ................
201044f0:	000e 0000 0001 0000 3600 016e 86db 01a2     .........6n.....
20104500:	0003 0000 0037 0000 0001 0000 ffff ffff     ....7...........
20104510:	0010 0000 0001 0000 8d80 005b 1b00 00b7     ..........[.....
20104520:	0000 0000 001f 0000 0002 0000 ffff ffff     ................
20104530:	0010 0000 0001 0000 1b00 00b7 3600 016e     .............6n.
20104540:	0001 0000 001f 0000 0001 0000 ffff ffff     ................
20104550:	0012 0000 0001 0000 8d80 005b c2aa 00a2     ..........[.....
20104560:	0000 0000 0023 0000 0002 0000 ffff ffff     ....#...........
20104570:	0012 0000 0001 0000 c2ab 00a2 1b00 00b7     ................
20104580:	0000 0000 0011 0000 0001 0000 ffff ffff     ................
20104590:	0012 0000 0001 0000 1b00 00b7 8555 0145     ............U.E.
201045a0:	0001 0000 0023 0000 0001 0000 ffff ffff     ....#...........
201045b0:	0014 0000 0001 0000 8d80 005b 7c00 0092     ..........[..|..
201045c0:	0000 0000 0027 0000 0002 0000 ffff ffff     ....'...........
201045d0:	0014 0000 0001 0000 7c00 0092 1b00 00b7     .........|......
201045e0:	0000 0000 0013 0000 0001 0000 ffff ffff     ................
201045f0:	0014 0000 0001 0000 1b00 00b7 f800 0124     ..............$.
20104600:	0001 0000 0027 0000 0001 0000 ffff ffff     ....'...........
20104610:	0016 0000 0001 0000 8d80 005b 2ae8 0085     ..........[..*..
20104620:	0000 0000 002b 0000 0002 0000 ffff ffff     ....+...........
20104630:	0016 0000 0001 0000 2ae9 0085 1b00 00b7     .........*......
20104640:	0000 0000 0015 0000 0001 0000 ffff ffff     ................
20104650:	0016 0000 0001 0000 1b00 00b7 55d1 010a     .............U..
20104660:	0001 0000 002b 0000 0001 0000 ffff ffff     ....+...........
20104670:	0018 0000 0001 0000 8d80 005b 1200 007a     ..........[...z.
20104680:	0000 0000 002f 0000 0002 0000 ffff ffff     ..../...........
20104690:	0018 0000 0001 0000 1200 007a 1b00 00b7     ..........z.....
201046a0:	0000 0000 0017 0000 0001 0000 ffff ffff     ................
201046b0:	0018 0000 0001 0000 1b00 00b7 2400 00f4     .............$..
201046c0:	0001 0000 002f 0000 0001 0000 ffff ffff     ..../...........
201046d0:	001a 0000 0001 0000 8d80 005b ae27 0070     ..........[.'.p.
201046e0:	0000 0000 0033 0000 0002 0000 ffff ffff     ....3...........
201046f0:	001a 0000 0001 0000 ae28 0070 1b00 00b7     ........(.p.....
20104700:	0000 0000 0019 0000 0001 0000 ffff ffff     ................
20104710:	001a 0000 0001 0000 1b00 00b7 5866 00e1     ............fX..
20104720:	0001 0000 0033 0000 0001 0000 ffff ffff     ....3...........
20104730:	001c 0000 0001 0000 8d80 005b a1b6 0068     ..........[...h.
20104740:	0000 0000 0037 0000 0002 0000 ffff ffff     ....7...........
20104750:	001c 0000 0001 0000 a1b7 0068 1b00 00b7     ..........h.....
20104760:	0000 0000 001b 0000 0001 0000 ffff ffff     ................
20104770:	001c 0000 0001 0000 1b00 00b7 436d 00d1     ............mC..
20104780:	0001 0000 0037 0000 0001 0000 ffff ffff     ....7...........
20104790:	001e 0000 0001 0000 8d80 005b a800 0061     ..........[...a.
201047a0:	0000 0000 003b 0000 0002 0000 ffff ffff     ....;...........
201047b0:	001e 0000 0001 0000 a800 0061 1b00 00b7     ..........a.....
201047c0:	0000 0000 001d 0000 0001 0000 ffff ffff     ................
201047d0:	001e 0000 0001 0000 1b00 00b7 5000 00c3     .............P..
201047e0:	0001 0000 003b 0000 0001 0000 ffff ffff     ....;...........
201047f0:	0020 0000 0001 0000 8d80 005b 1b00 00b7      .........[.....
20104800:	0000 0000 001f 0000 0001 0000 ffff ffff     ................

20104810 <__metal_driver_vtable_sifive_led>:
20104810:	7c92 2010 7d20 2010 7da6 2010 7d68 2010     .|.  }. .}. h}. 
20104820:	7ce2 2010 7f1e 2010 7f3c 2010 7f4c 2010     .|. ... <.. L.. 
20104830:	7f46 2010 7f62 2010 7f54 2010 7f5c 2010     F.. b.. T.. \.. 
20104840:	7f6a 2010 7fa8 2010 7fb8 2010 7fb2 2010     j.. ... ... ... 
20104850:	7fce 2010 7fc0 2010 7fc8 2010 7fd6 2010     ... ... ... ... 

20104860 <__metal_driver_vtable_sifive_gpio0>:
20104860:	7dfc 2010 7de4 2010 7e18 2010 7e2c 2010     .}. .}. .~. ,~. 
20104870:	7e40 2010 7e5c 2010 7e74 2010 7e8c 2010     @~. \~. t~. .~. 
20104880:	7ea8 2010 7ec0 2010 7ede 2010 7efa 2010     .~. .~. .~. .~. 
20104890:	7f82 2010 7ff0 2010 8006 2010               ... ... ... 

2010489c <__metal_driver_vtable_sifive_uart0>:
2010489c:	82f6 2010 81ce 2010 8134 2010 8204 2010     ... ... 4.. ... 
201048ac:	8228 2010 822c 2010 8092 2010 80ac 2010     (.. ,.. ... ... 
201048bc:	80c0 2010 80de 2010 80fa 2010 8118 2010     ... ... ... ... 
201048cc:	814e 2010 8172 2010 818e 2010 81b2 2010     N.. r.. ... ... 
201048dc:	0000 0000                                   ....

201048e0 <argv>:
argv():
201048e0:	48e8                	lw	a0,84(s1)
201048e2:	2010                	.insn	2, 0x2010

201048e4 <envp>:
envp():
201048e4:	0000                	unimp
	...

201048e8 <name>:
name():
201048e8:	696c                	.insn	2, 0x696c
201048ea:	6762                	.insn	2, 0x6762
201048ec:	6f6c                	.insn	2, 0x6f6c
201048ee:	00007373          	csrrc	t1,ustatus,0
201048f2:	0000                	unimp
201048f4:	0000                	unimp
	...

201048f8 <processfclayer>:
processfclayer():
201048f8:	1101                	add	sp,sp,-32
201048fa:	ce22                	sw	s0,28(sp)
201048fc:	cc26                	sw	s1,24(sp)
201048fe:	ca4a                	sw	s2,20(sp)
20104900:	c84e                	sw	s3,16(sp)
20104902:	c652                	sw	s4,12(sp)
20104904:	c456                	sw	s5,8(sp)
20104906:	c25a                	sw	s6,4(sp)
20104908:	c05e                	sw	s7,0(sp)
2010490a:	4301                	li	t1,0
2010490c:	4f31                	li	t5,12
2010490e:	4ea1                	li	t4,8
20104910:	4fc1                	li	t6,16
20104912:	4291                	li	t0,4
20104914:	43d1                	li	t2,20
20104916:	4409                	li	s0,2
20104918:	400004b7          	lui	s1,0x40000
2010491c:	4905                	li	s2,1
2010491e:	02000993          	li	s3,32
20104922:	00e31c63          	bne	t1,a4,2010493a <processfclayer+0x42>
20104926:	4472                	lw	s0,28(sp)
20104928:	44e2                	lw	s1,24(sp)
2010492a:	4952                	lw	s2,20(sp)
2010492c:	49c2                	lw	s3,16(sp)
2010492e:	4a32                	lw	s4,12(sp)
20104930:	4aa2                	lw	s5,8(sp)
20104932:	4b12                	lw	s6,4(sp)
20104934:	4b82                	lw	s7,0(sp)
20104936:	6105                	add	sp,sp,32
20104938:	8082                	ret
2010493a:	07e60f63          	beq	a2,t5,201049b8 <processfclayer+0xc0>
2010493e:	02cf4863          	blt	t5,a2,2010496e <processfclayer+0x76>
20104942:	0e860863          	beq	a2,s0,20104a32 <processfclayer+0x13a>
20104946:	0a560463          	beq	a2,t0,201049ee <processfclayer+0xf6>
2010494a:	4801                	li	a6,0
2010494c:	01261a63          	bne	a2,s2,20104960 <processfclayer+0x68>
20104950:	8e2e                	mv	t3,a1
20104952:	4881                	li	a7,0
20104954:	4801                	li	a6,0
20104956:	01150b33          	add	s6,a0,a7
2010495a:	85f2                	mv	a1,t3
2010495c:	10d8ec63          	bltu	a7,a3,20104a74 <processfclayer+0x17c>
20104960:	00231893          	sll	a7,t1,0x2
20104964:	98be                	add	a7,a7,a5
20104966:	0108a023          	sw	a6,0(a7)
2010496a:	0305                	add	t1,t1,1
2010496c:	bf5d                	j	20104922 <processfclayer+0x2a>
2010496e:	17f60063          	beq	a2,t6,20104ace <processfclayer+0x1d6>
20104972:	4801                	li	a6,0
20104974:	fe7616e3          	bne	a2,t2,20104960 <processfclayer+0x68>
20104978:	8e2e                	mv	t3,a1
2010497a:	4881                	li	a7,0
2010497c:	01150bb3          	add	s7,a0,a7
20104980:	85f2                	mv	a1,t3
20104982:	fcd8ffe3          	bgeu	a7,a3,20104960 <processfclayer+0x68>
20104986:	000e2a83          	lw	s5,0(t3) # 19000 <__heap_size+0x18800>
2010498a:	4a01                	li	s4,0
2010498c:	014b85b3          	add	a1,s7,s4
20104990:	00058583          	lb	a1,0(a1)
20104994:	000ad463          	bgez	s5,2010499c <processfclayer+0xa4>
20104998:	40b005b3          	neg	a1,a1
2010499c:	01cadb13          	srl	s6,s5,0x1c
201049a0:	007b7b13          	and	s6,s6,7
201049a4:	016595b3          	sll	a1,a1,s6
201049a8:	0a05                	add	s4,s4,1
201049aa:	982e                	add	a6,a6,a1
201049ac:	0a92                	sll	s5,s5,0x4
201049ae:	fdda1fe3          	bne	s4,t4,2010498c <processfclayer+0x94>
201049b2:	08a1                	add	a7,a7,8
201049b4:	0e11                	add	t3,t3,4
201049b6:	b7d9                	j	2010497c <processfclayer+0x84>
201049b8:	8e2e                	mv	t3,a1
201049ba:	4881                	li	a7,0
201049bc:	4801                	li	a6,0
201049be:	01150b33          	add	s6,a0,a7
201049c2:	85f2                	mv	a1,t3
201049c4:	f8d8fee3          	bgeu	a7,a3,20104960 <processfclayer+0x68>
201049c8:	000e2a03          	lw	s4,0(t3)
201049cc:	4581                	li	a1,0
201049ce:	00bb0ab3          	add	s5,s6,a1
201049d2:	000a8a83          	lb	s5,0(s5)
201049d6:	41ca5b93          	sra	s7,s4,0x1c
201049da:	0585                	add	a1,a1,1
201049dc:	037a8ab3          	mul	s5,s5,s7
201049e0:	0a12                	sll	s4,s4,0x4
201049e2:	9856                	add	a6,a6,s5
201049e4:	ffd595e3          	bne	a1,t4,201049ce <processfclayer+0xd6>
201049e8:	08a1                	add	a7,a7,8
201049ea:	0e11                	add	t3,t3,4
201049ec:	bfc9                	j	201049be <processfclayer+0xc6>
201049ee:	8e2e                	mv	t3,a1
201049f0:	4881                	li	a7,0
201049f2:	4801                	li	a6,0
201049f4:	01150bb3          	add	s7,a0,a7
201049f8:	85f2                	mv	a1,t3
201049fa:	f6d8f3e3          	bgeu	a7,a3,20104960 <processfclayer+0x68>
201049fe:	000e2a83          	lw	s5,0(t3)
20104a02:	4a01                	li	s4,0
20104a04:	014b85b3          	add	a1,s7,s4
20104a08:	00058b03          	lb	s6,0(a1)
20104a0c:	000b0c63          	beqz	s6,20104a24 <processfclayer+0x12c>
20104a10:	000ad463          	bgez	s5,20104a18 <processfclayer+0x120>
20104a14:	41600b33          	neg	s6,s6
20104a18:	01cad593          	srl	a1,s5,0x1c
20104a1c:	899d                	and	a1,a1,7
20104a1e:	036585b3          	mul	a1,a1,s6
20104a22:	982e                	add	a6,a6,a1
20104a24:	0a05                	add	s4,s4,1
20104a26:	0a92                	sll	s5,s5,0x4
20104a28:	fdda1ee3          	bne	s4,t4,20104a04 <processfclayer+0x10c>
20104a2c:	08a1                	add	a7,a7,8
20104a2e:	0e11                	add	t3,t3,4
20104a30:	b7d1                	j	201049f4 <processfclayer+0xfc>
20104a32:	8e2e                	mv	t3,a1
20104a34:	4881                	li	a7,0
20104a36:	4801                	li	a6,0
20104a38:	01150b33          	add	s6,a0,a7
20104a3c:	85f2                	mv	a1,t3
20104a3e:	f2d8f1e3          	bgeu	a7,a3,20104960 <processfclayer+0x68>
20104a42:	000e2a83          	lw	s5,0(t3)
20104a46:	4a01                	li	s4,0
20104a48:	014b05b3          	add	a1,s6,s4
20104a4c:	00058583          	lb	a1,0(a1)
20104a50:	000ad463          	bgez	s5,20104a58 <processfclayer+0x160>
20104a54:	40b005b3          	neg	a1,a1
20104a58:	009afbb3          	and	s7,s5,s1
20104a5c:	982e                	add	a6,a6,a1
20104a5e:	000b8463          	beqz	s7,20104a66 <processfclayer+0x16e>
20104a62:	0586                	sll	a1,a1,0x1
20104a64:	982e                	add	a6,a6,a1
20104a66:	0a05                	add	s4,s4,1
20104a68:	0a8a                	sll	s5,s5,0x2
20104a6a:	fdfa1fe3          	bne	s4,t6,20104a48 <processfclayer+0x150>
20104a6e:	08c1                	add	a7,a7,16
20104a70:	0e11                	add	t3,t3,4
20104a72:	b7d9                	j	20104a38 <processfclayer+0x140>
20104a74:	000e2a03          	lw	s4,0(t3)
20104a78:	4581                	li	a1,0
20104a7a:	00bb0ab3          	add	s5,s6,a1
20104a7e:	000a8a83          	lb	s5,0(s5)
20104a82:	000a4463          	bltz	s4,20104a8a <processfclayer+0x192>
20104a86:	41500ab3          	neg	s5,s5
20104a8a:	0585                	add	a1,a1,1
20104a8c:	9856                	add	a6,a6,s5
20104a8e:	0a06                	sll	s4,s4,0x1
20104a90:	ff3595e3          	bne	a1,s3,20104a7a <processfclayer+0x182>
20104a94:	02088893          	add	a7,a7,32
20104a98:	0e11                	add	t3,t3,4
20104a9a:	bd75                	j	20104956 <processfclayer+0x5e>
20104a9c:	000e2a03          	lw	s4,0(t3)
20104aa0:	4e01                	li	t3,0
20104aa2:	01cb0ab3          	add	s5,s6,t3
20104aa6:	000a8a83          	lb	s5,0(s5)
20104aaa:	418a5b93          	sra	s7,s4,0x18
20104aae:	0e05                	add	t3,t3,1
20104ab0:	037a8ab3          	mul	s5,s5,s7
20104ab4:	0a22                	sll	s4,s4,0x8
20104ab6:	9856                	add	a6,a6,s5
20104ab8:	fe5e15e3          	bne	t3,t0,20104aa2 <processfclayer+0x1aa>
20104abc:	0891                	add	a7,a7,4
20104abe:	01150b33          	add	s6,a0,a7
20104ac2:	01158e33          	add	t3,a1,a7
20104ac6:	fcd8ebe3          	bltu	a7,a3,20104a9c <processfclayer+0x1a4>
20104aca:	85f2                	mv	a1,t3
20104acc:	bd51                	j	20104960 <processfclayer+0x68>
20104ace:	4881                	li	a7,0
20104ad0:	4801                	li	a6,0
20104ad2:	b7f5                	j	20104abe <processfclayer+0x1c6>

20104ad4 <_global_impure_ptr>:
20104ad4:	0000 8000                                   ....

20104ad8 <CSWTCH.79>:
20104ad8:	0301 0004                                   ....

20104adc <__metal_driver_vtable_sifive_fe310_g000_hfrosc>:
20104adc:	78d0 2010 7918 2010                         .x. .y. 

20104ae4 <__metal_driver_vtable_sifive_fe310_g000_hfxosc>:
20104ae4:	791a 2010 7956 2010                         .y. Vy. 

20104aec <__metal_driver_vtable_sifive_fe310_g000_prci>:
20104aec:	7c34 2010 7c3e 2010                         4|. >|. 

20104af4 <__metal_driver_vtable_fixed_clock>:
20104af4:	8480 2010 84c6 2010                         ... ... 

Disassembly of section .text:

20104b00 <main>:
main():
20104b00:	1101                	add	sp,sp,-32
20104b02:	cc22                	sw	s0,24(sp)
20104b04:	201005b7          	lui	a1,0x20100
20104b08:	20100437          	lui	s0,0x20100
20104b0c:	6d058593          	add	a1,a1,1744 # 201006d0 <metal_tty_init+0x3d2>
20104b10:	6d440513          	add	a0,s0,1748 # 201006d4 <metal_tty_init+0x3d6>
20104b14:	ce06                	sw	ra,28(sp)
20104b16:	c84a                	sw	s2,16(sp)
20104b18:	c64e                	sw	s3,12(sp)
20104b1a:	ca26                	sw	s1,20(sp)
20104b1c:	c452                	sw	s4,8(sp)
20104b1e:	c256                	sw	s5,4(sp)
20104b20:	75c010ef          	jal	2010627c <metal_led_get_rgb>
20104b24:	201005b7          	lui	a1,0x20100
20104b28:	89aa                	mv	s3,a0
20104b2a:	6d858593          	add	a1,a1,1752 # 201006d8 <metal_tty_init+0x3da>
20104b2e:	6d440513          	add	a0,s0,1748
20104b32:	74a010ef          	jal	2010627c <metal_led_get_rgb>
20104b36:	201005b7          	lui	a1,0x20100
20104b3a:	892a                	mv	s2,a0
20104b3c:	6e058593          	add	a1,a1,1760 # 201006e0 <metal_tty_init+0x3e2>
20104b40:	6d440513          	add	a0,s0,1748
20104b44:	738010ef          	jal	2010627c <metal_led_get_rgb>
20104b48:	00098663          	beqz	s3,20104b54 <main+0x54>
20104b4c:	00090463          	beqz	s2,20104b54 <main+0x54>
20104b50:	84aa                	mv	s1,a0
20104b52:	e10d                	bnez	a0,20104b74 <main+0x74>
20104b54:	20100537          	lui	a0,0x20100
20104b58:	6e850513          	add	a0,a0,1768 # 201006e8 <metal_tty_init+0x3ea>
20104b5c:	5aa000ef          	jal	20105106 <puts>
20104b60:	4505                	li	a0,1
20104b62:	40f2                	lw	ra,28(sp)
20104b64:	4462                	lw	s0,24(sp)
20104b66:	44d2                	lw	s1,20(sp)
20104b68:	4942                	lw	s2,16(sp)
20104b6a:	49b2                	lw	s3,12(sp)
20104b6c:	4a22                	lw	s4,8(sp)
20104b6e:	4a92                	lw	s5,4(sp)
20104b70:	6105                	add	sp,sp,32
20104b72:	8082                	ret
20104b74:	854e                	mv	a0,s3
20104b76:	6f4010ef          	jal	2010626a <metal_led_enable>
20104b7a:	854a                	mv	a0,s2
20104b7c:	6ee010ef          	jal	2010626a <metal_led_enable>
20104b80:	8526                	mv	a0,s1
20104b82:	6e8010ef          	jal	2010626a <metal_led_enable>
20104b86:	854e                	mv	a0,s3
20104b88:	6ee010ef          	jal	20106276 <metal_led_off>
20104b8c:	854a                	mv	a0,s2
20104b8e:	6e8010ef          	jal	20106276 <metal_led_off>
20104b92:	8526                	mv	a0,s1
20104b94:	6e2010ef          	jal	20106276 <metal_led_off>
20104b98:	6ba010ef          	jal	20106252 <metal_cpu_get_current_hartid>
20104b9c:	6a6010ef          	jal	20106242 <metal_cpu_get>
20104ba0:	8ca1aa23          	sw	a0,-1836(gp) # 80000b54 <cpu>
20104ba4:	e901                	bnez	a0,20104bb4 <main+0xb4>
20104ba6:	20100537          	lui	a0,0x20100
20104baa:	70850513          	add	a0,a0,1800 # 20100708 <metal_tty_init+0x40a>
20104bae:	2ba1                	jal	20105106 <puts>
20104bb0:	4509                	li	a0,2
20104bb2:	bf45                	j	20104b62 <main+0x62>
20104bb4:	688010ef          	jal	2010623c <metal_cpu_interrupt_controller>
20104bb8:	8ca1ae23          	sw	a0,-1828(gp) # 80000b5c <cpu_intr>
20104bbc:	e901                	bnez	a0,20104bcc <main+0xcc>
20104bbe:	20100537          	lui	a0,0x20100
20104bc2:	71450513          	add	a0,a0,1812 # 20100714 <metal_tty_init+0x416>
20104bc6:	2381                	jal	20105106 <puts>
20104bc8:	450d                	li	a0,3
20104bca:	bf61                	j	20104b62 <main+0x62>
20104bcc:	68c010ef          	jal	20106258 <metal_interrupt_init>
20104bd0:	2431                	jal	20104ddc <display_banner>
20104bd2:	20100537          	lui	a0,0x20100
20104bd6:	73850513          	add	a0,a0,1848 # 20100738 <metal_tty_init+0x43a>
20104bda:	2335                	jal	20105106 <puts>
20104bdc:	20101537          	lui	a0,0x20101
20104be0:	4605                	li	a2,1
20104be2:	459d                	li	a1,7
20104be4:	b1c50513          	add	a0,a0,-1252 # 20100b1c <input_data_0>
20104be8:	2289                	jal	20104d2a <BitMnistInference>
20104bea:	20101537          	lui	a0,0x20101
20104bee:	4609                	li	a2,2
20104bf0:	4585                	li	a1,1
20104bf2:	a1c50513          	add	a0,a0,-1508 # 20100a1c <input_data_1>
20104bf6:	2a15                	jal	20104d2a <BitMnistInference>
20104bf8:	20101537          	lui	a0,0x20101
20104bfc:	460d                	li	a2,3
20104bfe:	45a5                	li	a1,9
20104c00:	91c50513          	add	a0,a0,-1764 # 2010091c <input_data_2>
20104c04:	221d                	jal	20104d2a <BitMnistInference>
20104c06:	20101537          	lui	a0,0x20101
20104c0a:	4611                	li	a2,4
20104c0c:	4591                	li	a1,4
20104c0e:	81c50513          	add	a0,a0,-2020 # 2010081c <input_data_3>
20104c12:	2a21                	jal	20104d2a <BitMnistInference>
20104c14:	8d41a503          	lw	a0,-1836(gp) # 80000b54 <cpu>
20104c18:	618010ef          	jal	20106230 <metal_cpu_timer_interrupt_controller>
20104c1c:	8ca1ac23          	sw	a0,-1832(gp) # 80000b58 <tmr_intr>
20104c20:	e901                	bnez	a0,20104c30 <main+0x130>
20104c22:	20100537          	lui	a0,0x20100
20104c26:	75450513          	add	a0,a0,1876 # 20100754 <metal_tty_init+0x456>
20104c2a:	29f1                	jal	20105106 <puts>
20104c2c:	4511                	li	a0,4
20104c2e:	bf15                	j	20104b62 <main+0x62>
20104c30:	628010ef          	jal	20106258 <metal_interrupt_init>
20104c34:	8d41a503          	lw	a0,-1836(gp) # 80000b54 <cpu>
20104c38:	5fe010ef          	jal	20106236 <metal_cpu_timer_get_interrupt_id>
20104c3c:	8d41a683          	lw	a3,-1836(gp) # 80000b54 <cpu>
20104c40:	85aa                	mv	a1,a0
20104c42:	8ea1a223          	sw	a0,-1820(gp) # 80000b64 <tmr_id>
20104c46:	8d81a503          	lw	a0,-1832(gp) # 80000b58 <tmr_intr>
20104c4a:	20105637          	lui	a2,0x20105
20104c4e:	c9860613          	add	a2,a2,-872 # 20104c98 <timer_isr>
20104c52:	60c010ef          	jal	2010625e <metal_interrupt_register_handler>
20104c56:	842a                	mv	s0,a0
20104c58:	00055a63          	bgez	a0,20104c6c <main+0x16c>
20104c5c:	20100537          	lui	a0,0x20100
20104c60:	77c50513          	add	a0,a0,1916 # 2010077c <metal_tty_init+0x47e>
20104c64:	214d                	jal	20105106 <puts>
20104c66:	40800533          	neg	a0,s0
20104c6a:	bde5                	j	20104b62 <main+0x62>
20104c6c:	8dc1a503          	lw	a0,-1828(gp) # 80000b5c <cpu_intr>
20104c70:	4581                	li	a1,0
20104c72:	5f2010ef          	jal	20106264 <metal_interrupt_enable>
20104c76:	57fd                	li	a5,-1
20104c78:	00f51963          	bne	a0,a5,20104c8a <main+0x18a>
20104c7c:	20100537          	lui	a0,0x20100
20104c80:	7a850513          	add	a0,a0,1960 # 201007a8 <metal_tty_init+0x4aa>
20104c84:	2149                	jal	20105106 <puts>
20104c86:	4519                	li	a0,6
20104c88:	bde9                	j	20104b62 <main+0x62>
20104c8a:	854e                	mv	a0,s3
20104c8c:	2c89                	jal	20104ede <wait_for_timer>
20104c8e:	854a                	mv	a0,s2
20104c90:	24b9                	jal	20104ede <wait_for_timer>
20104c92:	8526                	mv	a0,s1
20104c94:	24a9                	jal	20104ede <wait_for_timer>
20104c96:	bfd5                	j	20104c8a <main+0x18a>

20104c98 <timer_isr>:
timer_isr():
20104c98:	8d81a503          	lw	a0,-1832(gp) # 80000b58 <tmr_intr>
20104c9c:	8e41a583          	lw	a1,-1820(gp) # 80000b64 <tmr_id>
20104ca0:	411c                	lw	a5,0(a0)
20104ca2:	1141                	add	sp,sp,-16
20104ca4:	c606                	sw	ra,12(sp)
20104ca6:	579c                	lw	a5,40(a5)
20104ca8:	9782                	jalr	a5
20104caa:	40b2                	lw	ra,12(sp)
20104cac:	4705                	li	a4,1
20104cae:	8ee1a023          	sw	a4,-1824(gp) # 80000b60 <timer_isr_flag>
20104cb2:	0141                	add	sp,sp,16
20104cb4:	8082                	ret

20104cb6 <ReLUNorm>:
ReLUNorm():
20104cb6:	800007b7          	lui	a5,0x80000
20104cba:	88aa                	mv	a7,a0
20104cbc:	4701                	li	a4,0
20104cbe:	0ff00513          	li	a0,255
20104cc2:	0785                	add	a5,a5,1 # 80000001 <metal_segment_itim_target_end+0x1>
20104cc4:	00c71e63          	bne	a4,a2,20104ce0 <ReLUNorm+0x2a>
20104cc8:	879d                	sra	a5,a5,0x7
20104cca:	4801                	li	a6,0
20104ccc:	e785                	bnez	a5,20104cf4 <ReLUNorm+0x3e>
20104cce:	4685                	li	a3,1
20104cd0:	010696b3          	sll	a3,a3,a6
20104cd4:	8685                	sra	a3,a3,0x1
20104cd6:	07f00e13          	li	t3,127
20104cda:	02c79063          	bne	a5,a2,20104cfa <ReLUNorm+0x44>
20104cde:	8082                	ret
20104ce0:	00271693          	sll	a3,a4,0x2
20104ce4:	96c6                	add	a3,a3,a7
20104ce6:	4294                	lw	a3,0(a3)
20104ce8:	00d7d463          	bge	a5,a3,20104cf0 <ReLUNorm+0x3a>
20104cec:	853a                	mv	a0,a4
20104cee:	87b6                	mv	a5,a3
20104cf0:	0705                	add	a4,a4,1 # 2001 <__heap_size+0x1801>
20104cf2:	bfc9                	j	20104cc4 <ReLUNorm+0xe>
20104cf4:	0805                	add	a6,a6,1
20104cf6:	8385                	srl	a5,a5,0x1
20104cf8:	bfd1                	j	20104ccc <ReLUNorm+0x16>
20104cfa:	00279713          	sll	a4,a5,0x2
20104cfe:	9746                	add	a4,a4,a7
20104d00:	4318                	lw	a4,0(a4)
20104d02:	4301                	li	t1,0
20104d04:	00074d63          	bltz	a4,20104d1e <ReLUNorm+0x68>
20104d08:	9736                	add	a4,a4,a3
20104d0a:	41075733          	sra	a4,a4,a6
20104d0e:	07f00313          	li	t1,127
20104d12:	00ee4663          	blt	t3,a4,20104d1e <ReLUNorm+0x68>
20104d16:	01871313          	sll	t1,a4,0x18
20104d1a:	41835313          	sra	t1,t1,0x18
20104d1e:	00f58733          	add	a4,a1,a5
20104d22:	00670023          	sb	t1,0(a4)
20104d26:	0785                	add	a5,a5,1
20104d28:	bf4d                	j	20104cda <ReLUNorm+0x24>

20104d2a <BitMnistInference>:
BitMnistInference():
20104d2a:	714d                	add	sp,sp,-336
20104d2c:	14912223          	sw	s1,324(sp)
20104d30:	84ae                	mv	s1,a1
20104d32:	201025b7          	lui	a1,0x20102
20104d36:	14812423          	sw	s0,328(sp)
20104d3a:	009c                	add	a5,sp,64
20104d3c:	8432                	mv	s0,a2
20104d3e:	04000713          	li	a4,64
20104d42:	10000693          	li	a3,256
20104d46:	4611                	li	a2,4
20104d48:	d5c58593          	add	a1,a1,-676 # 20101d5c <L1_weights>
20104d4c:	14112623          	sw	ra,332(sp)
20104d50:	3665                	jal	201048f8 <processfclayer>
20104d52:	858a                	mv	a1,sp
20104d54:	04000613          	li	a2,64
20104d58:	0088                	add	a0,sp,64
20104d5a:	3fb1                	jal	20104cb6 <ReLUNorm>
20104d5c:	201015b7          	lui	a1,0x20101
20104d60:	009c                	add	a5,sp,64
20104d62:	04000713          	li	a4,64
20104d66:	04000693          	li	a3,64
20104d6a:	850a                	mv	a0,sp
20104d6c:	4611                	li	a2,4
20104d6e:	55c58593          	add	a1,a1,1372 # 2010155c <L2_weights>
20104d72:	3659                	jal	201048f8 <processfclayer>
20104d74:	858a                	mv	a1,sp
20104d76:	04000613          	li	a2,64
20104d7a:	0088                	add	a0,sp,64
20104d7c:	3f2d                	jal	20104cb6 <ReLUNorm>
20104d7e:	201015b7          	lui	a1,0x20101
20104d82:	009c                	add	a5,sp,64
20104d84:	04000713          	li	a4,64
20104d88:	04000693          	li	a3,64
20104d8c:	850a                	mv	a0,sp
20104d8e:	4611                	li	a2,4
20104d90:	d5c58593          	add	a1,a1,-676 # 20100d5c <L3_weights>
20104d94:	3695                	jal	201048f8 <processfclayer>
20104d96:	858a                	mv	a1,sp
20104d98:	04000613          	li	a2,64
20104d9c:	0088                	add	a0,sp,64
20104d9e:	3f21                	jal	20104cb6 <ReLUNorm>
20104da0:	201015b7          	lui	a1,0x20101
20104da4:	009c                	add	a5,sp,64
20104da6:	04000693          	li	a3,64
20104daa:	850a                	mv	a0,sp
20104dac:	4729                	li	a4,10
20104dae:	4611                	li	a2,4
20104db0:	c1c58593          	add	a1,a1,-996 # 20100c1c <L4_weights>
20104db4:	3691                	jal	201048f8 <processfclayer>
20104db6:	858a                	mv	a1,sp
20104db8:	4629                	li	a2,10
20104dba:	0088                	add	a0,sp,64
20104dbc:	3ded                	jal	20104cb6 <ReLUNorm>
20104dbe:	85a2                	mv	a1,s0
20104dc0:	14812403          	lw	s0,328(sp)
20104dc4:	14c12083          	lw	ra,332(sp)
20104dc8:	86a6                	mv	a3,s1
20104dca:	14412483          	lw	s1,324(sp)
20104dce:	862a                	mv	a2,a0
20104dd0:	20100537          	lui	a0,0x20100
20104dd4:	31050513          	add	a0,a0,784 # 20100310 <metal_tty_init+0x12>
20104dd8:	6171                	add	sp,sp,336
20104dda:	aab9                	j	20104f38 <iprintf>

20104ddc <display_banner>:
display_banner():
20104ddc:	1141                	add	sp,sp,-16
20104dde:	4529                	li	a0,10
20104de0:	c606                	sw	ra,12(sp)
20104de2:	2a51                	jal	20104f76 <putchar>
20104de4:	4529                	li	a0,10
20104de6:	2a41                	jal	20104f76 <putchar>
20104de8:	20100537          	lui	a0,0x20100
20104dec:	34450513          	add	a0,a0,836 # 20100344 <metal_tty_init+0x46>
20104df0:	2e19                	jal	20105106 <puts>
20104df2:	4529                	li	a0,10
20104df4:	2249                	jal	20104f76 <putchar>
20104df6:	20100537          	lui	a0,0x20100
20104dfa:	36450513          	add	a0,a0,868 # 20100364 <metal_tty_init+0x66>
20104dfe:	2621                	jal	20105106 <puts>
20104e00:	20100537          	lui	a0,0x20100
20104e04:	38c50513          	add	a0,a0,908 # 2010038c <metal_tty_init+0x8e>
20104e08:	2cfd                	jal	20105106 <puts>
20104e0a:	20100537          	lui	a0,0x20100
20104e0e:	3b450513          	add	a0,a0,948 # 201003b4 <metal_tty_init+0xb6>
20104e12:	2cd5                	jal	20105106 <puts>
20104e14:	20100537          	lui	a0,0x20100
20104e18:	3dc50513          	add	a0,a0,988 # 201003dc <metal_tty_init+0xde>
20104e1c:	24ed                	jal	20105106 <puts>
20104e1e:	20100537          	lui	a0,0x20100
20104e22:	40450513          	add	a0,a0,1028 # 20100404 <metal_tty_init+0x106>
20104e26:	24c5                	jal	20105106 <puts>
20104e28:	20100537          	lui	a0,0x20100
20104e2c:	43050513          	add	a0,a0,1072 # 20100430 <metal_tty_init+0x132>
20104e30:	2cd9                	jal	20105106 <puts>
20104e32:	20100537          	lui	a0,0x20100
20104e36:	45c50513          	add	a0,a0,1116 # 2010045c <metal_tty_init+0x15e>
20104e3a:	24f1                	jal	20105106 <puts>
20104e3c:	20100537          	lui	a0,0x20100
20104e40:	48850513          	add	a0,a0,1160 # 20100488 <metal_tty_init+0x18a>
20104e44:	24c9                	jal	20105106 <puts>
20104e46:	20100537          	lui	a0,0x20100
20104e4a:	4b450513          	add	a0,a0,1204 # 201004b4 <metal_tty_init+0x1b6>
20104e4e:	2c65                	jal	20105106 <puts>
20104e50:	20100537          	lui	a0,0x20100
20104e54:	4e450513          	add	a0,a0,1252 # 201004e4 <metal_tty_init+0x1e6>
20104e58:	247d                	jal	20105106 <puts>
20104e5a:	20100537          	lui	a0,0x20100
20104e5e:	51450513          	add	a0,a0,1300 # 20100514 <metal_tty_init+0x216>
20104e62:	2455                	jal	20105106 <puts>
20104e64:	20100537          	lui	a0,0x20100
20104e68:	54450513          	add	a0,a0,1348 # 20100544 <metal_tty_init+0x246>
20104e6c:	2c69                	jal	20105106 <puts>
20104e6e:	20100537          	lui	a0,0x20100
20104e72:	57050513          	add	a0,a0,1392 # 20100570 <metal_tty_init+0x272>
20104e76:	2c41                	jal	20105106 <puts>
20104e78:	20100537          	lui	a0,0x20100
20104e7c:	59c50513          	add	a0,a0,1436 # 2010059c <metal_tty_init+0x29e>
20104e80:	2459                	jal	20105106 <puts>
20104e82:	20100537          	lui	a0,0x20100
20104e86:	5c450513          	add	a0,a0,1476 # 201005c4 <metal_tty_init+0x2c6>
20104e8a:	2cb5                	jal	20105106 <puts>
20104e8c:	20100537          	lui	a0,0x20100
20104e90:	5ec50513          	add	a0,a0,1516 # 201005ec <metal_tty_init+0x2ee>
20104e94:	2c8d                	jal	20105106 <puts>
20104e96:	20100537          	lui	a0,0x20100
20104e9a:	61050513          	add	a0,a0,1552 # 20100610 <metal_tty_init+0x312>
20104e9e:	24a5                	jal	20105106 <puts>
20104ea0:	20100537          	lui	a0,0x20100
20104ea4:	63450513          	add	a0,a0,1588 # 20100634 <metal_tty_init+0x336>
20104ea8:	2cb9                	jal	20105106 <puts>
20104eaa:	20100537          	lui	a0,0x20100
20104eae:	65450513          	add	a0,a0,1620 # 20100654 <metal_tty_init+0x356>
20104eb2:	2c91                	jal	20105106 <puts>
20104eb4:	20100537          	lui	a0,0x20100
20104eb8:	67450513          	add	a0,a0,1652 # 20100674 <metal_tty_init+0x376>
20104ebc:	24a9                	jal	20105106 <puts>
20104ebe:	20100537          	lui	a0,0x20100
20104ec2:	69050513          	add	a0,a0,1680 # 20100690 <metal_tty_init+0x392>
20104ec6:	2481                	jal	20105106 <puts>
20104ec8:	4529                	li	a0,10
20104eca:	2075                	jal	20104f76 <putchar>
20104ecc:	4529                	li	a0,10
20104ece:	2065                	jal	20104f76 <putchar>
20104ed0:	40b2                	lw	ra,12(sp)
20104ed2:	20100537          	lui	a0,0x20100
20104ed6:	6ac50513          	add	a0,a0,1708 # 201006ac <metal_tty_init+0x3ae>
20104eda:	0141                	add	sp,sp,16
20104edc:	a42d                	j	20105106 <puts>

20104ede <wait_for_timer>:
wait_for_timer():
20104ede:	1141                	add	sp,sp,-16
20104ee0:	c226                	sw	s1,4(sp)
20104ee2:	c606                	sw	ra,12(sp)
20104ee4:	c422                	sw	s0,8(sp)
20104ee6:	c04a                	sw	s2,0(sp)
20104ee8:	842a                	mv	s0,a0
20104eea:	8e01a023          	sw	zero,-1824(gp) # 80000b60 <timer_isr_flag>
20104eee:	382010ef          	jal	20106270 <metal_led_on>
20104ef2:	8d41a903          	lw	s2,-1836(gp) # 80000b54 <cpu>
20104ef6:	854a                	mv	a0,s2
20104ef8:	332010ef          	jal	2010622a <metal_cpu_get_mtime>
20104efc:	00092783          	lw	a5,0(s2) # 18000 <__heap_size+0x17800>
20104f00:	872e                	mv	a4,a1
20104f02:	65a1                	lui	a1,0x8
20104f04:	95aa                	add	a1,a1,a0
20104f06:	47dc                	lw	a5,12(a5)
20104f08:	00a5b633          	sltu	a2,a1,a0
20104f0c:	963a                	add	a2,a2,a4
20104f0e:	854a                	mv	a0,s2
20104f10:	9782                	jalr	a5
20104f12:	8e41a583          	lw	a1,-1820(gp) # 80000b64 <tmr_id>
20104f16:	8d81a503          	lw	a0,-1832(gp) # 80000b58 <tmr_intr>
20104f1a:	34a010ef          	jal	20106264 <metal_interrupt_enable>
20104f1e:	8e01a783          	lw	a5,-1824(gp) # 80000b60 <timer_isr_flag>
20104f22:	dff5                	beqz	a5,20104f1e <wait_for_timer+0x40>
20104f24:	8522                	mv	a0,s0
20104f26:	4422                	lw	s0,8(sp)
20104f28:	40b2                	lw	ra,12(sp)
20104f2a:	4902                	lw	s2,0(sp)
20104f2c:	8e01a023          	sw	zero,-1824(gp) # 80000b60 <timer_isr_flag>
20104f30:	4492                	lw	s1,4(sp)
20104f32:	0141                	add	sp,sp,16
20104f34:	3420106f          	j	20106276 <metal_led_off>

20104f38 <iprintf>:
printf():
20104f38:	715d                	add	sp,sp,-80
20104f3a:	d422                	sw	s0,40(sp)
20104f3c:	d606                	sw	ra,44(sp)
20104f3e:	842a                	mv	s0,a0
20104f40:	da2e                	sw	a1,52(sp)
20104f42:	dc32                	sw	a2,56(sp)
20104f44:	de36                	sw	a3,60(sp)
20104f46:	c0ba                	sw	a4,64(sp)
20104f48:	c2be                	sw	a5,68(sp)
20104f4a:	c4c2                	sw	a6,72(sp)
20104f4c:	c6c6                	sw	a7,76(sp)
20104f4e:	5fefc517          	auipc	a0,0x5fefc
20104f52:	b3252503          	lw	a0,-1230(a0) # 80000a80 <_impure_ptr>
20104f56:	c511                	beqz	a0,20104f62 <iprintf+0x2a>
20104f58:	4d1c                	lw	a5,24(a0)
20104f5a:	e781                	bnez	a5,20104f62 <iprintf+0x2a>
20104f5c:	c62a                	sw	a0,12(sp)
20104f5e:	23d1                	jal	20105522 <__sinit>
20104f60:	4532                	lw	a0,12(sp)
20104f62:	450c                	lw	a1,8(a0)
20104f64:	1854                	add	a3,sp,52
20104f66:	8622                	mv	a2,s0
20104f68:	ce36                	sw	a3,28(sp)
20104f6a:	2a9000ef          	jal	20105a12 <_vfiprintf_r>
20104f6e:	50b2                	lw	ra,44(sp)
20104f70:	5422                	lw	s0,40(sp)
20104f72:	6161                	add	sp,sp,80
20104f74:	8082                	ret

20104f76 <putchar>:
putchar():
20104f76:	85aa                	mv	a1,a0
20104f78:	5fefc517          	auipc	a0,0x5fefc
20104f7c:	b0852503          	lw	a0,-1272(a0) # 80000a80 <_impure_ptr>
20104f80:	cd11                	beqz	a0,20104f9c <putchar+0x26>
20104f82:	4d1c                	lw	a5,24(a0)
20104f84:	ef81                	bnez	a5,20104f9c <putchar+0x26>
20104f86:	1101                	add	sp,sp,-32
20104f88:	ce06                	sw	ra,28(sp)
20104f8a:	c62e                	sw	a1,12(sp)
20104f8c:	c42a                	sw	a0,8(sp)
20104f8e:	2b51                	jal	20105522 <__sinit>
20104f90:	4522                	lw	a0,8(sp)
20104f92:	45b2                	lw	a1,12(sp)
20104f94:	40f2                	lw	ra,28(sp)
20104f96:	4510                	lw	a2,8(a0)
20104f98:	6105                	add	sp,sp,32
20104f9a:	a019                	j	20104fa0 <_putc_r>
20104f9c:	4510                	lw	a2,8(a0)
20104f9e:	bff5                	j	20104f9a <putchar+0x24>

20104fa0 <_putc_r>:
_putc_r():
20104fa0:	1101                	add	sp,sp,-32
20104fa2:	cc22                	sw	s0,24(sp)
20104fa4:	ce06                	sw	ra,28(sp)
20104fa6:	842a                	mv	s0,a0
20104fa8:	c901                	beqz	a0,20104fb8 <_putc_r+0x18>
20104faa:	4d1c                	lw	a5,24(a0)
20104fac:	e791                	bnez	a5,20104fb8 <_putc_r+0x18>
20104fae:	c632                	sw	a2,12(sp)
20104fb0:	c42e                	sw	a1,8(sp)
20104fb2:	2b85                	jal	20105522 <__sinit>
20104fb4:	4632                	lw	a2,12(sp)
20104fb6:	45a2                	lw	a1,8(sp)
20104fb8:	fffff797          	auipc	a5,0xfffff
20104fbc:	de478793          	add	a5,a5,-540 # 20103d9c <__sf_fake_stdin>
20104fc0:	02f61563          	bne	a2,a5,20104fea <_putc_r+0x4a>
20104fc4:	4050                	lw	a2,4(s0)
20104fc6:	461c                	lw	a5,8(a2)
20104fc8:	17fd                	add	a5,a5,-1
20104fca:	c61c                	sw	a5,8(a2)
20104fcc:	0207df63          	bgez	a5,2010500a <_putc_r+0x6a>
20104fd0:	4e18                	lw	a4,24(a2)
20104fd2:	00e7c763          	blt	a5,a4,20104fe0 <_putc_r+0x40>
20104fd6:	0ff5f793          	zext.b	a5,a1
20104fda:	4729                	li	a4,10
20104fdc:	02e79763          	bne	a5,a4,2010500a <_putc_r+0x6a>
20104fe0:	8522                	mv	a0,s0
20104fe2:	4462                	lw	s0,24(sp)
20104fe4:	40f2                	lw	ra,28(sp)
20104fe6:	6105                	add	sp,sp,32
20104fe8:	a22d                	j	20105112 <__swbuf_r>
20104fea:	fffff797          	auipc	a5,0xfffff
20104fee:	d9278793          	add	a5,a5,-622 # 20103d7c <__sf_fake_stdout>
20104ff2:	00f61463          	bne	a2,a5,20104ffa <_putc_r+0x5a>
20104ff6:	4410                	lw	a2,8(s0)
20104ff8:	b7f9                	j	20104fc6 <_putc_r+0x26>
20104ffa:	fffff797          	auipc	a5,0xfffff
20104ffe:	d6278793          	add	a5,a5,-670 # 20103d5c <__sf_fake_stderr>
20105002:	fcf612e3          	bne	a2,a5,20104fc6 <_putc_r+0x26>
20105006:	4450                	lw	a2,12(s0)
20105008:	bf7d                	j	20104fc6 <_putc_r+0x26>
2010500a:	421c                	lw	a5,0(a2)
2010500c:	0ff5f513          	zext.b	a0,a1
20105010:	00178713          	add	a4,a5,1
20105014:	c218                	sw	a4,0(a2)
20105016:	00b78023          	sb	a1,0(a5)
2010501a:	40f2                	lw	ra,28(sp)
2010501c:	4462                	lw	s0,24(sp)
2010501e:	6105                	add	sp,sp,32
20105020:	8082                	ret

20105022 <_puts_r>:
_puts_r():
20105022:	1101                	add	sp,sp,-32
20105024:	ca26                	sw	s1,20(sp)
20105026:	ce06                	sw	ra,28(sp)
20105028:	cc22                	sw	s0,24(sp)
2010502a:	c84a                	sw	s2,16(sp)
2010502c:	c64e                	sw	s3,12(sp)
2010502e:	c452                	sw	s4,8(sp)
20105030:	84aa                	mv	s1,a0
20105032:	e119                	bnez	a0,20105038 <_puts_r+0x16>
20105034:	451c                	lw	a5,8(a0)
20105036:	9002                	ebreak
20105038:	4d1c                	lw	a5,24(a0)
2010503a:	892e                	mv	s2,a1
2010503c:	ef9d                	bnez	a5,2010507a <_puts_r+0x58>
2010503e:	21d5                	jal	20105522 <__sinit>
20105040:	4c9c                	lw	a5,24(s1)
20105042:	4480                	lw	s0,8(s1)
20105044:	cf8d                	beqz	a5,2010507e <_puts_r+0x5c>
20105046:	fffff797          	auipc	a5,0xfffff
2010504a:	d5678793          	add	a5,a5,-682 # 20103d9c <__sf_fake_stdin>
2010504e:	02f41b63          	bne	s0,a5,20105084 <_puts_r+0x62>
20105052:	40c0                	lw	s0,4(s1)
20105054:	00c45783          	lhu	a5,12(s0)
20105058:	8ba1                	and	a5,a5,8
2010505a:	c399                	beqz	a5,20105060 <_puts_r+0x3e>
2010505c:	481c                	lw	a5,16(s0)
2010505e:	ebc9                	bnez	a5,201050f0 <_puts_r+0xce>
20105060:	85a2                	mv	a1,s0
20105062:	8526                	mv	a0,s1
20105064:	22bd                	jal	201051d2 <__swsetup_r>
20105066:	c549                	beqz	a0,201050f0 <_puts_r+0xce>
20105068:	557d                	li	a0,-1
2010506a:	40f2                	lw	ra,28(sp)
2010506c:	4462                	lw	s0,24(sp)
2010506e:	44d2                	lw	s1,20(sp)
20105070:	4942                	lw	s2,16(sp)
20105072:	49b2                	lw	s3,12(sp)
20105074:	4a22                	lw	s4,8(sp)
20105076:	6105                	add	sp,sp,32
20105078:	8082                	ret
2010507a:	4500                	lw	s0,8(a0)
2010507c:	b7e9                	j	20105046 <_puts_r+0x24>
2010507e:	8526                	mv	a0,s1
20105080:	214d                	jal	20105522 <__sinit>
20105082:	b7d1                	j	20105046 <_puts_r+0x24>
20105084:	fffff797          	auipc	a5,0xfffff
20105088:	cf878793          	add	a5,a5,-776 # 20103d7c <__sf_fake_stdout>
2010508c:	00f41463          	bne	s0,a5,20105094 <_puts_r+0x72>
20105090:	4480                	lw	s0,8(s1)
20105092:	b7c9                	j	20105054 <_puts_r+0x32>
20105094:	fffff797          	auipc	a5,0xfffff
20105098:	cc878793          	add	a5,a5,-824 # 20103d5c <__sf_fake_stderr>
2010509c:	faf41ce3          	bne	s0,a5,20105054 <_puts_r+0x32>
201050a0:	44c0                	lw	s0,12(s1)
201050a2:	bf4d                	j	20105054 <_puts_r+0x32>
201050a4:	c41c                	sw	a5,8(s0)
201050a6:	0905                	add	s2,s2,1
201050a8:	0207c963          	bltz	a5,201050da <_puts_r+0xb8>
201050ac:	401c                	lw	a5,0(s0)
201050ae:	00178713          	add	a4,a5,1
201050b2:	c018                	sw	a4,0(s0)
201050b4:	00b78023          	sb	a1,0(a5)
201050b8:	441c                	lw	a5,8(s0)
201050ba:	00094583          	lbu	a1,0(s2)
201050be:	17fd                	add	a5,a5,-1
201050c0:	f1f5                	bnez	a1,201050a4 <_puts_r+0x82>
201050c2:	c41c                	sw	a5,8(s0)
201050c4:	0207d963          	bgez	a5,201050f6 <_puts_r+0xd4>
201050c8:	8622                	mv	a2,s0
201050ca:	45a9                	li	a1,10
201050cc:	8526                	mv	a0,s1
201050ce:	2091                	jal	20105112 <__swbuf_r>
201050d0:	57fd                	li	a5,-1
201050d2:	f8f50be3          	beq	a0,a5,20105068 <_puts_r+0x46>
201050d6:	4529                	li	a0,10
201050d8:	bf49                	j	2010506a <_puts_r+0x48>
201050da:	4c18                	lw	a4,24(s0)
201050dc:	00e7c463          	blt	a5,a4,201050e4 <_puts_r+0xc2>
201050e0:	fd4596e3          	bne	a1,s4,201050ac <_puts_r+0x8a>
201050e4:	8622                	mv	a2,s0
201050e6:	8526                	mv	a0,s1
201050e8:	202d                	jal	20105112 <__swbuf_r>
201050ea:	fd3517e3          	bne	a0,s3,201050b8 <_puts_r+0x96>
201050ee:	bfad                	j	20105068 <_puts_r+0x46>
201050f0:	59fd                	li	s3,-1
201050f2:	4a29                	li	s4,10
201050f4:	b7d1                	j	201050b8 <_puts_r+0x96>
201050f6:	401c                	lw	a5,0(s0)
201050f8:	00178713          	add	a4,a5,1
201050fc:	c018                	sw	a4,0(s0)
201050fe:	4729                	li	a4,10
20105100:	00e78023          	sb	a4,0(a5)
20105104:	bfc9                	j	201050d6 <_puts_r+0xb4>

20105106 <puts>:
puts():
20105106:	85aa                	mv	a1,a0
20105108:	5fefc517          	auipc	a0,0x5fefc
2010510c:	97852503          	lw	a0,-1672(a0) # 80000a80 <_impure_ptr>
20105110:	bf09                	j	20105022 <_puts_r>

20105112 <__swbuf_r>:
__swbuf_r():
20105112:	1101                	add	sp,sp,-32
20105114:	cc22                	sw	s0,24(sp)
20105116:	ca26                	sw	s1,20(sp)
20105118:	c84a                	sw	s2,16(sp)
2010511a:	ce06                	sw	ra,28(sp)
2010511c:	c64e                	sw	s3,12(sp)
2010511e:	84aa                	mv	s1,a0
20105120:	892e                	mv	s2,a1
20105122:	8432                	mv	s0,a2
20105124:	c501                	beqz	a0,2010512c <__swbuf_r+0x1a>
20105126:	4d1c                	lw	a5,24(a0)
20105128:	e391                	bnez	a5,2010512c <__swbuf_r+0x1a>
2010512a:	2ee5                	jal	20105522 <__sinit>
2010512c:	fffff797          	auipc	a5,0xfffff
20105130:	c7078793          	add	a5,a5,-912 # 20103d9c <__sf_fake_stdin>
20105134:	02f41863          	bne	s0,a5,20105164 <__swbuf_r+0x52>
20105138:	40c0                	lw	s0,4(s1)
2010513a:	4c1c                	lw	a5,24(s0)
2010513c:	c41c                	sw	a5,8(s0)
2010513e:	00c45783          	lhu	a5,12(s0)
20105142:	8ba1                	and	a5,a5,8
20105144:	c399                	beqz	a5,2010514a <__swbuf_r+0x38>
20105146:	481c                	lw	a5,16(s0)
20105148:	ef95                	bnez	a5,20105184 <__swbuf_r+0x72>
2010514a:	85a2                	mv	a1,s0
2010514c:	8526                	mv	a0,s1
2010514e:	2051                	jal	201051d2 <__swsetup_r>
20105150:	c915                	beqz	a0,20105184 <__swbuf_r+0x72>
20105152:	597d                	li	s2,-1
20105154:	40f2                	lw	ra,28(sp)
20105156:	4462                	lw	s0,24(sp)
20105158:	44d2                	lw	s1,20(sp)
2010515a:	49b2                	lw	s3,12(sp)
2010515c:	854a                	mv	a0,s2
2010515e:	4942                	lw	s2,16(sp)
20105160:	6105                	add	sp,sp,32
20105162:	8082                	ret
20105164:	fffff797          	auipc	a5,0xfffff
20105168:	c1878793          	add	a5,a5,-1000 # 20103d7c <__sf_fake_stdout>
2010516c:	00f41463          	bne	s0,a5,20105174 <__swbuf_r+0x62>
20105170:	4480                	lw	s0,8(s1)
20105172:	b7e1                	j	2010513a <__swbuf_r+0x28>
20105174:	fffff797          	auipc	a5,0xfffff
20105178:	be878793          	add	a5,a5,-1048 # 20103d5c <__sf_fake_stderr>
2010517c:	faf41fe3          	bne	s0,a5,2010513a <__swbuf_r+0x28>
20105180:	44c0                	lw	s0,12(s1)
20105182:	bf65                	j	2010513a <__swbuf_r+0x28>
20105184:	481c                	lw	a5,16(s0)
20105186:	4008                	lw	a0,0(s0)
20105188:	0ff97993          	zext.b	s3,s2
2010518c:	0ff97913          	zext.b	s2,s2
20105190:	8d1d                	sub	a0,a0,a5
20105192:	485c                	lw	a5,20(s0)
20105194:	00f54663          	blt	a0,a5,201051a0 <__swbuf_r+0x8e>
20105198:	85a2                	mv	a1,s0
2010519a:	8526                	mv	a0,s1
2010519c:	24b5                	jal	20105408 <_fflush_r>
2010519e:	f955                	bnez	a0,20105152 <__swbuf_r+0x40>
201051a0:	441c                	lw	a5,8(s0)
201051a2:	0505                	add	a0,a0,1
201051a4:	17fd                	add	a5,a5,-1
201051a6:	c41c                	sw	a5,8(s0)
201051a8:	401c                	lw	a5,0(s0)
201051aa:	00178713          	add	a4,a5,1
201051ae:	c018                	sw	a4,0(s0)
201051b0:	01378023          	sb	s3,0(a5)
201051b4:	485c                	lw	a5,20(s0)
201051b6:	00a78963          	beq	a5,a0,201051c8 <__swbuf_r+0xb6>
201051ba:	00c45783          	lhu	a5,12(s0)
201051be:	8b85                	and	a5,a5,1
201051c0:	dbd1                	beqz	a5,20105154 <__swbuf_r+0x42>
201051c2:	47a9                	li	a5,10
201051c4:	f8f918e3          	bne	s2,a5,20105154 <__swbuf_r+0x42>
201051c8:	85a2                	mv	a1,s0
201051ca:	8526                	mv	a0,s1
201051cc:	2c35                	jal	20105408 <_fflush_r>
201051ce:	d159                	beqz	a0,20105154 <__swbuf_r+0x42>
201051d0:	b749                	j	20105152 <__swbuf_r+0x40>

201051d2 <__swsetup_r>:
__swsetup_r():
201051d2:	1141                	add	sp,sp,-16
201051d4:	c422                	sw	s0,8(sp)
201051d6:	c226                	sw	s1,4(sp)
201051d8:	c04a                	sw	s2,0(sp)
201051da:	c606                	sw	ra,12(sp)
201051dc:	5fefc497          	auipc	s1,0x5fefc
201051e0:	8a44a483          	lw	s1,-1884(s1) # 80000a80 <_impure_ptr>
201051e4:	892a                	mv	s2,a0
201051e6:	842e                	mv	s0,a1
201051e8:	c489                	beqz	s1,201051f2 <__swsetup_r+0x20>
201051ea:	4c9c                	lw	a5,24(s1)
201051ec:	e399                	bnez	a5,201051f2 <__swsetup_r+0x20>
201051ee:	8526                	mv	a0,s1
201051f0:	2e0d                	jal	20105522 <__sinit>
201051f2:	fffff797          	auipc	a5,0xfffff
201051f6:	baa78793          	add	a5,a5,-1110 # 20103d9c <__sf_fake_stdin>
201051fa:	02f41463          	bne	s0,a5,20105222 <__swsetup_r+0x50>
201051fe:	40c0                	lw	s0,4(s1)
20105200:	00c41783          	lh	a5,12(s0)
20105204:	0087f713          	and	a4,a5,8
20105208:	eb2d                	bnez	a4,2010527a <__swsetup_r+0xa8>
2010520a:	0107f713          	and	a4,a5,16
2010520e:	eb15                	bnez	a4,20105242 <__swsetup_r+0x70>
20105210:	4725                	li	a4,9
20105212:	00e92023          	sw	a4,0(s2)
20105216:	0407e793          	or	a5,a5,64
2010521a:	00f41623          	sh	a5,12(s0)
2010521e:	557d                	li	a0,-1
20105220:	a859                	j	201052b6 <__swsetup_r+0xe4>
20105222:	fffff797          	auipc	a5,0xfffff
20105226:	b5a78793          	add	a5,a5,-1190 # 20103d7c <__sf_fake_stdout>
2010522a:	00f41463          	bne	s0,a5,20105232 <__swsetup_r+0x60>
2010522e:	4480                	lw	s0,8(s1)
20105230:	bfc1                	j	20105200 <__swsetup_r+0x2e>
20105232:	fffff797          	auipc	a5,0xfffff
20105236:	b2a78793          	add	a5,a5,-1238 # 20103d5c <__sf_fake_stderr>
2010523a:	fcf413e3          	bne	s0,a5,20105200 <__swsetup_r+0x2e>
2010523e:	44c0                	lw	s0,12(s1)
20105240:	b7c1                	j	20105200 <__swsetup_r+0x2e>
20105242:	8b91                	and	a5,a5,4
20105244:	c78d                	beqz	a5,2010526e <__swsetup_r+0x9c>
20105246:	584c                	lw	a1,52(s0)
20105248:	c989                	beqz	a1,2010525a <__swsetup_r+0x88>
2010524a:	04440793          	add	a5,s0,68
2010524e:	00f58463          	beq	a1,a5,20105256 <__swsetup_r+0x84>
20105252:	854a                	mv	a0,s2
20105254:	23d5                	jal	20105838 <_free_r>
20105256:	02042a23          	sw	zero,52(s0)
2010525a:	00c45783          	lhu	a5,12(s0)
2010525e:	00042223          	sw	zero,4(s0)
20105262:	fdb7f793          	and	a5,a5,-37
20105266:	00f41623          	sh	a5,12(s0)
2010526a:	481c                	lw	a5,16(s0)
2010526c:	c01c                	sw	a5,0(s0)
2010526e:	00c45783          	lhu	a5,12(s0)
20105272:	0087e793          	or	a5,a5,8
20105276:	00f41623          	sh	a5,12(s0)
2010527a:	481c                	lw	a5,16(s0)
2010527c:	ef81                	bnez	a5,20105294 <__swsetup_r+0xc2>
2010527e:	00c45783          	lhu	a5,12(s0)
20105282:	20000713          	li	a4,512
20105286:	2807f793          	and	a5,a5,640
2010528a:	00e78563          	beq	a5,a4,20105294 <__swsetup_r+0xc2>
2010528e:	85a2                	mv	a1,s0
20105290:	854a                	mv	a0,s2
20105292:	29b1                	jal	201056ee <__smakebuf_r>
20105294:	00c41783          	lh	a5,12(s0)
20105298:	0017f713          	and	a4,a5,1
2010529c:	c31d                	beqz	a4,201052c2 <__swsetup_r+0xf0>
2010529e:	4858                	lw	a4,20(s0)
201052a0:	00042423          	sw	zero,8(s0)
201052a4:	40e00733          	neg	a4,a4
201052a8:	cc18                	sw	a4,24(s0)
201052aa:	4818                	lw	a4,16(s0)
201052ac:	4501                	li	a0,0
201052ae:	e701                	bnez	a4,201052b6 <__swsetup_r+0xe4>
201052b0:	0807f713          	and	a4,a5,128
201052b4:	f32d                	bnez	a4,20105216 <__swsetup_r+0x44>
201052b6:	40b2                	lw	ra,12(sp)
201052b8:	4422                	lw	s0,8(sp)
201052ba:	4492                	lw	s1,4(sp)
201052bc:	4902                	lw	s2,0(sp)
201052be:	0141                	add	sp,sp,16
201052c0:	8082                	ret
201052c2:	0027f713          	and	a4,a5,2
201052c6:	4681                	li	a3,0
201052c8:	e311                	bnez	a4,201052cc <__swsetup_r+0xfa>
201052ca:	4854                	lw	a3,20(s0)
201052cc:	c414                	sw	a3,8(s0)
201052ce:	bff1                	j	201052aa <__swsetup_r+0xd8>

201052d0 <__sflush_r>:
__sflush_r():
201052d0:	00c59783          	lh	a5,12(a1) # 800c <__heap_size+0x780c>
201052d4:	1101                	add	sp,sp,-32
201052d6:	cc22                	sw	s0,24(sp)
201052d8:	ca26                	sw	s1,20(sp)
201052da:	ce06                	sw	ra,28(sp)
201052dc:	c84a                	sw	s2,16(sp)
201052de:	c64e                	sw	s3,12(sp)
201052e0:	0087f713          	and	a4,a5,8
201052e4:	84aa                	mv	s1,a0
201052e6:	842e                	mv	s0,a1
201052e8:	e769                	bnez	a4,201053b2 <__sflush_r+0xe2>
201052ea:	41d8                	lw	a4,4(a1)
201052ec:	00e04563          	bgtz	a4,201052f6 <__sflush_r+0x26>
201052f0:	41b8                	lw	a4,64(a1)
201052f2:	08e05863          	blez	a4,20105382 <__sflush_r+0xb2>
201052f6:	5458                	lw	a4,44(s0)
201052f8:	c749                	beqz	a4,20105382 <__sflush_r+0xb2>
201052fa:	83b1                	srl	a5,a5,0xc
201052fc:	0004a903          	lw	s2,0(s1)
20105300:	8b85                	and	a5,a5,1
20105302:	0004a023          	sw	zero,0(s1)
20105306:	500c                	lw	a1,32(s0)
20105308:	cbb9                	beqz	a5,2010535e <__sflush_r+0x8e>
2010530a:	4870                	lw	a2,84(s0)
2010530c:	00c45783          	lhu	a5,12(s0)
20105310:	8b91                	and	a5,a5,4
20105312:	c799                	beqz	a5,20105320 <__sflush_r+0x50>
20105314:	405c                	lw	a5,4(s0)
20105316:	8e1d                	sub	a2,a2,a5
20105318:	585c                	lw	a5,52(s0)
2010531a:	c399                	beqz	a5,20105320 <__sflush_r+0x50>
2010531c:	403c                	lw	a5,64(s0)
2010531e:	8e1d                	sub	a2,a2,a5
20105320:	545c                	lw	a5,44(s0)
20105322:	500c                	lw	a1,32(s0)
20105324:	4681                	li	a3,0
20105326:	8526                	mv	a0,s1
20105328:	9782                	jalr	a5
2010532a:	57fd                	li	a5,-1
2010532c:	04f50d63          	beq	a0,a5,20105386 <__sflush_r+0xb6>
20105330:	481c                	lw	a5,16(s0)
20105332:	6705                	lui	a4,0x1
20105334:	00042223          	sw	zero,4(s0)
20105338:	c01c                	sw	a5,0(s0)
2010533a:	00c45783          	lhu	a5,12(s0)
2010533e:	8ff9                	and	a5,a5,a4
20105340:	c391                	beqz	a5,20105344 <__sflush_r+0x74>
20105342:	c868                	sw	a0,84(s0)
20105344:	584c                	lw	a1,52(s0)
20105346:	0124a023          	sw	s2,0(s1)
2010534a:	cd85                	beqz	a1,20105382 <__sflush_r+0xb2>
2010534c:	04440793          	add	a5,s0,68
20105350:	00f58463          	beq	a1,a5,20105358 <__sflush_r+0x88>
20105354:	8526                	mv	a0,s1
20105356:	21cd                	jal	20105838 <_free_r>
20105358:	02042a23          	sw	zero,52(s0)
2010535c:	a01d                	j	20105382 <__sflush_r+0xb2>
2010535e:	4601                	li	a2,0
20105360:	4685                	li	a3,1
20105362:	8526                	mv	a0,s1
20105364:	9702                	jalr	a4
20105366:	57fd                	li	a5,-1
20105368:	862a                	mv	a2,a0
2010536a:	faf511e3          	bne	a0,a5,2010530c <__sflush_r+0x3c>
2010536e:	409c                	lw	a5,0(s1)
20105370:	dfd1                	beqz	a5,2010530c <__sflush_r+0x3c>
20105372:	4775                	li	a4,29
20105374:	00e78563          	beq	a5,a4,2010537e <__sflush_r+0xae>
20105378:	4759                	li	a4,22
2010537a:	06e79563          	bne	a5,a4,201053e4 <__sflush_r+0x114>
2010537e:	0124a023          	sw	s2,0(s1)
20105382:	4501                	li	a0,0
20105384:	a0bd                	j	201053f2 <__sflush_r+0x122>
20105386:	4098                	lw	a4,0(s1)
20105388:	00c41783          	lh	a5,12(s0)
2010538c:	cf01                	beqz	a4,201053a4 <__sflush_r+0xd4>
2010538e:	46f5                	li	a3,29
20105390:	00d70563          	beq	a4,a3,2010539a <__sflush_r+0xca>
20105394:	46d9                	li	a3,22
20105396:	04d71963          	bne	a4,a3,201053e8 <__sflush_r+0x118>
2010539a:	481c                	lw	a5,16(s0)
2010539c:	00042223          	sw	zero,4(s0)
201053a0:	c01c                	sw	a5,0(s0)
201053a2:	b74d                	j	20105344 <__sflush_r+0x74>
201053a4:	4818                	lw	a4,16(s0)
201053a6:	83b1                	srl	a5,a5,0xc
201053a8:	00042223          	sw	zero,4(s0)
201053ac:	c018                	sw	a4,0(s0)
201053ae:	8b85                	and	a5,a5,1
201053b0:	bf41                	j	20105340 <__sflush_r+0x70>
201053b2:	0105a983          	lw	s3,16(a1)
201053b6:	fc0986e3          	beqz	s3,20105382 <__sflush_r+0xb2>
201053ba:	0005a903          	lw	s2,0(a1)
201053be:	8b8d                	and	a5,a5,3
201053c0:	0135a023          	sw	s3,0(a1)
201053c4:	41390933          	sub	s2,s2,s3
201053c8:	4701                	li	a4,0
201053ca:	e391                	bnez	a5,201053ce <__sflush_r+0xfe>
201053cc:	49d8                	lw	a4,20(a1)
201053ce:	c418                	sw	a4,8(s0)
201053d0:	fb2059e3          	blez	s2,20105382 <__sflush_r+0xb2>
201053d4:	541c                	lw	a5,40(s0)
201053d6:	500c                	lw	a1,32(s0)
201053d8:	86ca                	mv	a3,s2
201053da:	864e                	mv	a2,s3
201053dc:	8526                	mv	a0,s1
201053de:	9782                	jalr	a5
201053e0:	02a04063          	bgtz	a0,20105400 <__sflush_r+0x130>
201053e4:	00c41783          	lh	a5,12(s0)
201053e8:	0407e793          	or	a5,a5,64
201053ec:	00f41623          	sh	a5,12(s0)
201053f0:	557d                	li	a0,-1
201053f2:	40f2                	lw	ra,28(sp)
201053f4:	4462                	lw	s0,24(sp)
201053f6:	44d2                	lw	s1,20(sp)
201053f8:	4942                	lw	s2,16(sp)
201053fa:	49b2                	lw	s3,12(sp)
201053fc:	6105                	add	sp,sp,32
201053fe:	8082                	ret
20105400:	99aa                	add	s3,s3,a0
20105402:	40a90933          	sub	s2,s2,a0
20105406:	b7e9                	j	201053d0 <__sflush_r+0x100>

20105408 <_fflush_r>:
_fflush_r():
20105408:	499c                	lw	a5,16(a1)
2010540a:	cfb9                	beqz	a5,20105468 <_fflush_r+0x60>
2010540c:	1101                	add	sp,sp,-32
2010540e:	cc22                	sw	s0,24(sp)
20105410:	ce06                	sw	ra,28(sp)
20105412:	842a                	mv	s0,a0
20105414:	c511                	beqz	a0,20105420 <_fflush_r+0x18>
20105416:	4d1c                	lw	a5,24(a0)
20105418:	e781                	bnez	a5,20105420 <_fflush_r+0x18>
2010541a:	c62e                	sw	a1,12(sp)
2010541c:	2219                	jal	20105522 <__sinit>
2010541e:	45b2                	lw	a1,12(sp)
20105420:	fffff797          	auipc	a5,0xfffff
20105424:	97c78793          	add	a5,a5,-1668 # 20103d9c <__sf_fake_stdin>
20105428:	00f59b63          	bne	a1,a5,2010543e <_fflush_r+0x36>
2010542c:	404c                	lw	a1,4(s0)
2010542e:	00c59783          	lh	a5,12(a1)
20105432:	c795                	beqz	a5,2010545e <_fflush_r+0x56>
20105434:	8522                	mv	a0,s0
20105436:	4462                	lw	s0,24(sp)
20105438:	40f2                	lw	ra,28(sp)
2010543a:	6105                	add	sp,sp,32
2010543c:	bd51                	j	201052d0 <__sflush_r>
2010543e:	fffff797          	auipc	a5,0xfffff
20105442:	93e78793          	add	a5,a5,-1730 # 20103d7c <__sf_fake_stdout>
20105446:	00f59463          	bne	a1,a5,2010544e <_fflush_r+0x46>
2010544a:	440c                	lw	a1,8(s0)
2010544c:	b7cd                	j	2010542e <_fflush_r+0x26>
2010544e:	fffff797          	auipc	a5,0xfffff
20105452:	90e78793          	add	a5,a5,-1778 # 20103d5c <__sf_fake_stderr>
20105456:	fcf59ce3          	bne	a1,a5,2010542e <_fflush_r+0x26>
2010545a:	444c                	lw	a1,12(s0)
2010545c:	bfc9                	j	2010542e <_fflush_r+0x26>
2010545e:	40f2                	lw	ra,28(sp)
20105460:	4462                	lw	s0,24(sp)
20105462:	4501                	li	a0,0
20105464:	6105                	add	sp,sp,32
20105466:	8082                	ret
20105468:	4501                	li	a0,0
2010546a:	8082                	ret

2010546c <std>:
std():
2010546c:	1141                	add	sp,sp,-16
2010546e:	c422                	sw	s0,8(sp)
20105470:	c606                	sw	ra,12(sp)
20105472:	842a                	mv	s0,a0
20105474:	00b51623          	sh	a1,12(a0)
20105478:	00c51723          	sh	a2,14(a0)
2010547c:	00052023          	sw	zero,0(a0)
20105480:	00052223          	sw	zero,4(a0)
20105484:	00052423          	sw	zero,8(a0)
20105488:	06052223          	sw	zero,100(a0)
2010548c:	00052823          	sw	zero,16(a0)
20105490:	00052a23          	sw	zero,20(a0)
20105494:	00052c23          	sw	zero,24(a0)
20105498:	4621                	li	a2,8
2010549a:	4581                	li	a1,0
2010549c:	05c50513          	add	a0,a0,92
201054a0:	2cc5                	jal	20105790 <memset>
201054a2:	00001797          	auipc	a5,0x1
201054a6:	82c78793          	add	a5,a5,-2004 # 20105cce <__sread>
201054aa:	d05c                	sw	a5,36(s0)
201054ac:	00001797          	auipc	a5,0x1
201054b0:	85278793          	add	a5,a5,-1966 # 20105cfe <__swrite>
201054b4:	d41c                	sw	a5,40(s0)
201054b6:	00001797          	auipc	a5,0x1
201054ba:	89678793          	add	a5,a5,-1898 # 20105d4c <__sseek>
201054be:	d45c                	sw	a5,44(s0)
201054c0:	00001797          	auipc	a5,0x1
201054c4:	8c278793          	add	a5,a5,-1854 # 20105d82 <__sclose>
201054c8:	40b2                	lw	ra,12(sp)
201054ca:	d000                	sw	s0,32(s0)
201054cc:	d81c                	sw	a5,48(s0)
201054ce:	4422                	lw	s0,8(sp)
201054d0:	0141                	add	sp,sp,16
201054d2:	8082                	ret

201054d4 <_cleanup_r>:
_cleanup_r():
201054d4:	00000597          	auipc	a1,0x0
201054d8:	f3458593          	add	a1,a1,-204 # 20105408 <_fflush_r>
201054dc:	a2b1                	j	20105628 <_fwalk_reent>

201054de <__sfmoreglue>:
__sfmoreglue():
201054de:	1141                	add	sp,sp,-16
201054e0:	c226                	sw	s1,4(sp)
201054e2:	06800793          	li	a5,104
201054e6:	fff58493          	add	s1,a1,-1
201054ea:	02f484b3          	mul	s1,s1,a5
201054ee:	c04a                	sw	s2,0(sp)
201054f0:	892e                	mv	s2,a1
201054f2:	c422                	sw	s0,8(sp)
201054f4:	c606                	sw	ra,12(sp)
201054f6:	07448593          	add	a1,s1,116
201054fa:	2ef1                	jal	201058d6 <_malloc_r>
201054fc:	842a                	mv	s0,a0
201054fe:	c919                	beqz	a0,20105514 <__sfmoreglue+0x36>
20105500:	00052023          	sw	zero,0(a0)
20105504:	01252223          	sw	s2,4(a0)
20105508:	0531                	add	a0,a0,12
2010550a:	c408                	sw	a0,8(s0)
2010550c:	06848613          	add	a2,s1,104
20105510:	4581                	li	a1,0
20105512:	2cbd                	jal	20105790 <memset>
20105514:	40b2                	lw	ra,12(sp)
20105516:	8522                	mv	a0,s0
20105518:	4422                	lw	s0,8(sp)
2010551a:	4492                	lw	s1,4(sp)
2010551c:	4902                	lw	s2,0(sp)
2010551e:	0141                	add	sp,sp,16
20105520:	8082                	ret

20105522 <__sinit>:
__sinit():
20105522:	4d1c                	lw	a5,24(a0)
20105524:	e3bd                	bnez	a5,2010558a <__sinit+0x68>
20105526:	1141                	add	sp,sp,-16
20105528:	c422                	sw	s0,8(sp)
2010552a:	c606                	sw	ra,12(sp)
2010552c:	00000797          	auipc	a5,0x0
20105530:	fa878793          	add	a5,a5,-88 # 201054d4 <_cleanup_r>
20105534:	d51c                	sw	a5,40(a0)
20105536:	04052423          	sw	zero,72(a0)
2010553a:	04052623          	sw	zero,76(a0)
2010553e:	04052823          	sw	zero,80(a0)
20105542:	fffff797          	auipc	a5,0xfffff
20105546:	5927a783          	lw	a5,1426(a5) # 20104ad4 <_global_impure_ptr>
2010554a:	842a                	mv	s0,a0
2010554c:	00f51463          	bne	a0,a5,20105554 <__sinit+0x32>
20105550:	4785                	li	a5,1
20105552:	cd1c                	sw	a5,24(a0)
20105554:	8522                	mv	a0,s0
20105556:	281d                	jal	2010558c <__sfp>
20105558:	c048                	sw	a0,4(s0)
2010555a:	8522                	mv	a0,s0
2010555c:	2805                	jal	2010558c <__sfp>
2010555e:	c408                	sw	a0,8(s0)
20105560:	8522                	mv	a0,s0
20105562:	202d                	jal	2010558c <__sfp>
20105564:	c448                	sw	a0,12(s0)
20105566:	4048                	lw	a0,4(s0)
20105568:	4601                	li	a2,0
2010556a:	4591                	li	a1,4
2010556c:	3701                	jal	2010546c <std>
2010556e:	4408                	lw	a0,8(s0)
20105570:	4605                	li	a2,1
20105572:	45a5                	li	a1,9
20105574:	3de5                	jal	2010546c <std>
20105576:	4448                	lw	a0,12(s0)
20105578:	4609                	li	a2,2
2010557a:	45c9                	li	a1,18
2010557c:	3dc5                	jal	2010546c <std>
2010557e:	4785                	li	a5,1
20105580:	40b2                	lw	ra,12(sp)
20105582:	cc1c                	sw	a5,24(s0)
20105584:	4422                	lw	s0,8(sp)
20105586:	0141                	add	sp,sp,16
20105588:	8082                	ret
2010558a:	8082                	ret

2010558c <__sfp>:
__sfp():
2010558c:	1141                	add	sp,sp,-16
2010558e:	c226                	sw	s1,4(sp)
20105590:	fffff497          	auipc	s1,0xfffff
20105594:	5444a483          	lw	s1,1348(s1) # 20104ad4 <_global_impure_ptr>
20105598:	4c9c                	lw	a5,24(s1)
2010559a:	c04a                	sw	s2,0(sp)
2010559c:	c606                	sw	ra,12(sp)
2010559e:	c422                	sw	s0,8(sp)
201055a0:	892a                	mv	s2,a0
201055a2:	e399                	bnez	a5,201055a8 <__sfp+0x1c>
201055a4:	8526                	mv	a0,s1
201055a6:	3fb5                	jal	20105522 <__sinit>
201055a8:	04848493          	add	s1,s1,72
201055ac:	4480                	lw	s0,8(s1)
201055ae:	40dc                	lw	a5,4(s1)
201055b0:	17fd                	add	a5,a5,-1
201055b2:	0007d663          	bgez	a5,201055be <__sfp+0x32>
201055b6:	409c                	lw	a5,0(s1)
201055b8:	cfb1                	beqz	a5,20105614 <__sfp+0x88>
201055ba:	4084                	lw	s1,0(s1)
201055bc:	bfc5                	j	201055ac <__sfp+0x20>
201055be:	00c41703          	lh	a4,12(s0)
201055c2:	e731                	bnez	a4,2010560e <__sfp+0x82>
201055c4:	77c1                	lui	a5,0xffff0
201055c6:	0785                	add	a5,a5,1 # ffff0001 <metal_segment_heap_target_end+0x7ffee891>
201055c8:	06042223          	sw	zero,100(s0)
201055cc:	00042023          	sw	zero,0(s0)
201055d0:	00042223          	sw	zero,4(s0)
201055d4:	00042423          	sw	zero,8(s0)
201055d8:	c45c                	sw	a5,12(s0)
201055da:	00042823          	sw	zero,16(s0)
201055de:	00042a23          	sw	zero,20(s0)
201055e2:	00042c23          	sw	zero,24(s0)
201055e6:	4621                	li	a2,8
201055e8:	4581                	li	a1,0
201055ea:	05c40513          	add	a0,s0,92
201055ee:	224d                	jal	20105790 <memset>
201055f0:	02042a23          	sw	zero,52(s0)
201055f4:	02042c23          	sw	zero,56(s0)
201055f8:	04042423          	sw	zero,72(s0)
201055fc:	04042623          	sw	zero,76(s0)
20105600:	40b2                	lw	ra,12(sp)
20105602:	8522                	mv	a0,s0
20105604:	4422                	lw	s0,8(sp)
20105606:	4492                	lw	s1,4(sp)
20105608:	4902                	lw	s2,0(sp)
2010560a:	0141                	add	sp,sp,16
2010560c:	8082                	ret
2010560e:	06840413          	add	s0,s0,104
20105612:	bf79                	j	201055b0 <__sfp+0x24>
20105614:	4591                	li	a1,4
20105616:	854a                	mv	a0,s2
20105618:	35d9                	jal	201054de <__sfmoreglue>
2010561a:	c088                	sw	a0,0(s1)
2010561c:	842a                	mv	s0,a0
2010561e:	fd51                	bnez	a0,201055ba <__sfp+0x2e>
20105620:	47b1                	li	a5,12
20105622:	00f92023          	sw	a5,0(s2)
20105626:	bfe9                	j	20105600 <__sfp+0x74>

20105628 <_fwalk_reent>:
_fwalk_reent():
20105628:	7179                	add	sp,sp,-48
2010562a:	d422                	sw	s0,40(sp)
2010562c:	d04a                	sw	s2,32(sp)
2010562e:	ce4e                	sw	s3,28(sp)
20105630:	cc52                	sw	s4,24(sp)
20105632:	c85a                	sw	s6,16(sp)
20105634:	c65e                	sw	s7,12(sp)
20105636:	d606                	sw	ra,44(sp)
20105638:	d226                	sw	s1,36(sp)
2010563a:	ca56                	sw	s5,20(sp)
2010563c:	892a                	mv	s2,a0
2010563e:	8a2e                	mv	s4,a1
20105640:	04850413          	add	s0,a0,72
20105644:	4981                	li	s3,0
20105646:	4b05                	li	s6,1
20105648:	5bfd                	li	s7,-1
2010564a:	4404                	lw	s1,8(s0)
2010564c:	00442a83          	lw	s5,4(s0)
20105650:	1afd                	add	s5,s5,-1
20105652:	020ad063          	bgez	s5,20105672 <_fwalk_reent+0x4a>
20105656:	4000                	lw	s0,0(s0)
20105658:	f86d                	bnez	s0,2010564a <_fwalk_reent+0x22>
2010565a:	50b2                	lw	ra,44(sp)
2010565c:	5422                	lw	s0,40(sp)
2010565e:	5492                	lw	s1,36(sp)
20105660:	5902                	lw	s2,32(sp)
20105662:	4a62                	lw	s4,24(sp)
20105664:	4ad2                	lw	s5,20(sp)
20105666:	4b42                	lw	s6,16(sp)
20105668:	4bb2                	lw	s7,12(sp)
2010566a:	854e                	mv	a0,s3
2010566c:	49f2                	lw	s3,28(sp)
2010566e:	6145                	add	sp,sp,48
20105670:	8082                	ret
20105672:	00c4d783          	lhu	a5,12(s1)
20105676:	00fb7b63          	bgeu	s6,a5,2010568c <_fwalk_reent+0x64>
2010567a:	00e49783          	lh	a5,14(s1)
2010567e:	01778763          	beq	a5,s7,2010568c <_fwalk_reent+0x64>
20105682:	85a6                	mv	a1,s1
20105684:	854a                	mv	a0,s2
20105686:	9a02                	jalr	s4
20105688:	00a9e9b3          	or	s3,s3,a0
2010568c:	06848493          	add	s1,s1,104
20105690:	b7c1                	j	20105650 <_fwalk_reent+0x28>

20105692 <__swhatbuf_r>:
__swhatbuf_r():
20105692:	7159                	add	sp,sp,-112
20105694:	d4a2                	sw	s0,104(sp)
20105696:	842e                	mv	s0,a1
20105698:	00e59583          	lh	a1,14(a1)
2010569c:	d2a6                	sw	s1,100(sp)
2010569e:	d0ca                	sw	s2,96(sp)
201056a0:	d686                	sw	ra,108(sp)
201056a2:	84b2                	mv	s1,a2
201056a4:	8936                	mv	s2,a3
201056a6:	0205d363          	bgez	a1,201056cc <__swhatbuf_r+0x3a>
201056aa:	00c45783          	lhu	a5,12(s0)
201056ae:	0807f793          	and	a5,a5,128
201056b2:	eb95                	bnez	a5,201056e6 <__swhatbuf_r+0x54>
201056b4:	40000713          	li	a4,1024
201056b8:	50b6                	lw	ra,108(sp)
201056ba:	5426                	lw	s0,104(sp)
201056bc:	00f92023          	sw	a5,0(s2)
201056c0:	c098                	sw	a4,0(s1)
201056c2:	5906                	lw	s2,96(sp)
201056c4:	5496                	lw	s1,100(sp)
201056c6:	4501                	li	a0,0
201056c8:	6165                	add	sp,sp,112
201056ca:	8082                	ret
201056cc:	0030                	add	a2,sp,8
201056ce:	70e000ef          	jal	20105ddc <_fstat_r>
201056d2:	fc054ce3          	bltz	a0,201056aa <__swhatbuf_r+0x18>
201056d6:	4732                	lw	a4,12(sp)
201056d8:	67bd                	lui	a5,0xf
201056da:	8ff9                	and	a5,a5,a4
201056dc:	7779                	lui	a4,0xffffe
201056de:	97ba                	add	a5,a5,a4
201056e0:	0017b793          	seqz	a5,a5
201056e4:	bfc1                	j	201056b4 <__swhatbuf_r+0x22>
201056e6:	4781                	li	a5,0
201056e8:	04000713          	li	a4,64
201056ec:	b7f1                	j	201056b8 <__swhatbuf_r+0x26>

201056ee <__smakebuf_r>:
__smakebuf_r():
201056ee:	00c5d783          	lhu	a5,12(a1)
201056f2:	7179                	add	sp,sp,-48
201056f4:	d422                	sw	s0,40(sp)
201056f6:	d606                	sw	ra,44(sp)
201056f8:	d226                	sw	s1,36(sp)
201056fa:	d04a                	sw	s2,32(sp)
201056fc:	ce4e                	sw	s3,28(sp)
201056fe:	8b89                	and	a5,a5,2
20105700:	842e                	mv	s0,a1
20105702:	cf91                	beqz	a5,2010571e <__smakebuf_r+0x30>
20105704:	04740793          	add	a5,s0,71
20105708:	c01c                	sw	a5,0(s0)
2010570a:	c81c                	sw	a5,16(s0)
2010570c:	4785                	li	a5,1
2010570e:	c85c                	sw	a5,20(s0)
20105710:	50b2                	lw	ra,44(sp)
20105712:	5422                	lw	s0,40(sp)
20105714:	5492                	lw	s1,36(sp)
20105716:	5902                	lw	s2,32(sp)
20105718:	49f2                	lw	s3,28(sp)
2010571a:	6145                	add	sp,sp,48
2010571c:	8082                	ret
2010571e:	0074                	add	a3,sp,12
20105720:	0030                	add	a2,sp,8
20105722:	84aa                	mv	s1,a0
20105724:	37bd                	jal	20105692 <__swhatbuf_r>
20105726:	49a2                	lw	s3,8(sp)
20105728:	892a                	mv	s2,a0
2010572a:	8526                	mv	a0,s1
2010572c:	85ce                	mv	a1,s3
2010572e:	2265                	jal	201058d6 <_malloc_r>
20105730:	ed01                	bnez	a0,20105748 <__smakebuf_r+0x5a>
20105732:	00c41783          	lh	a5,12(s0)
20105736:	2007f713          	and	a4,a5,512
2010573a:	fb79                	bnez	a4,20105710 <__smakebuf_r+0x22>
2010573c:	9bf1                	and	a5,a5,-4
2010573e:	0027e793          	or	a5,a5,2
20105742:	00f41623          	sh	a5,12(s0)
20105746:	bf7d                	j	20105704 <__smakebuf_r+0x16>
20105748:	00000797          	auipc	a5,0x0
2010574c:	d8c78793          	add	a5,a5,-628 # 201054d4 <_cleanup_r>
20105750:	d49c                	sw	a5,40(s1)
20105752:	00c45783          	lhu	a5,12(s0)
20105756:	c008                	sw	a0,0(s0)
20105758:	c808                	sw	a0,16(s0)
2010575a:	0807e793          	or	a5,a5,128
2010575e:	00f41623          	sh	a5,12(s0)
20105762:	47b2                	lw	a5,12(sp)
20105764:	01342a23          	sw	s3,20(s0)
20105768:	cf89                	beqz	a5,20105782 <__smakebuf_r+0x94>
2010576a:	00e41583          	lh	a1,14(s0)
2010576e:	8526                	mv	a0,s1
20105770:	2d59                	jal	20105e06 <_isatty_r>
20105772:	c901                	beqz	a0,20105782 <__smakebuf_r+0x94>
20105774:	00c45783          	lhu	a5,12(s0)
20105778:	9bf1                	and	a5,a5,-4
2010577a:	0017e793          	or	a5,a5,1
2010577e:	00f41623          	sh	a5,12(s0)
20105782:	00c45783          	lhu	a5,12(s0)
20105786:	0127e533          	or	a0,a5,s2
2010578a:	00a41623          	sh	a0,12(s0)
2010578e:	b749                	j	20105710 <__smakebuf_r+0x22>

20105790 <memset>:
memset():
20105790:	433d                	li	t1,15
20105792:	872a                	mv	a4,a0
20105794:	02c37363          	bgeu	t1,a2,201057ba <memset+0x2a>
20105798:	00f77793          	and	a5,a4,15
2010579c:	efbd                	bnez	a5,2010581a <memset+0x8a>
2010579e:	e5ad                	bnez	a1,20105808 <memset+0x78>
201057a0:	ff067693          	and	a3,a2,-16
201057a4:	8a3d                	and	a2,a2,15
201057a6:	96ba                	add	a3,a3,a4
201057a8:	c30c                	sw	a1,0(a4)
201057aa:	c34c                	sw	a1,4(a4)
201057ac:	c70c                	sw	a1,8(a4)
201057ae:	c74c                	sw	a1,12(a4)
201057b0:	0741                	add	a4,a4,16 # ffffe010 <metal_segment_heap_target_end+0x7fffc8a0>
201057b2:	fed76be3          	bltu	a4,a3,201057a8 <memset+0x18>
201057b6:	e211                	bnez	a2,201057ba <memset+0x2a>
201057b8:	8082                	ret
201057ba:	40c306b3          	sub	a3,t1,a2
201057be:	068a                	sll	a3,a3,0x2
201057c0:	00000297          	auipc	t0,0x0
201057c4:	9696                	add	a3,a3,t0
201057c6:	00a68067          	jr	10(a3)
201057ca:	00b70723          	sb	a1,14(a4)
201057ce:	00b706a3          	sb	a1,13(a4)
201057d2:	00b70623          	sb	a1,12(a4)
201057d6:	00b705a3          	sb	a1,11(a4)
201057da:	00b70523          	sb	a1,10(a4)
201057de:	00b704a3          	sb	a1,9(a4)
201057e2:	00b70423          	sb	a1,8(a4)
201057e6:	00b703a3          	sb	a1,7(a4)
201057ea:	00b70323          	sb	a1,6(a4)
201057ee:	00b702a3          	sb	a1,5(a4)
201057f2:	00b70223          	sb	a1,4(a4)
201057f6:	00b701a3          	sb	a1,3(a4)
201057fa:	00b70123          	sb	a1,2(a4)
201057fe:	00b700a3          	sb	a1,1(a4)
20105802:	00b70023          	sb	a1,0(a4)
20105806:	8082                	ret
20105808:	0ff5f593          	zext.b	a1,a1
2010580c:	00859693          	sll	a3,a1,0x8
20105810:	8dd5                	or	a1,a1,a3
20105812:	01059693          	sll	a3,a1,0x10
20105816:	8dd5                	or	a1,a1,a3
20105818:	b761                	j	201057a0 <memset+0x10>
2010581a:	00279693          	sll	a3,a5,0x2
2010581e:	00000297          	auipc	t0,0x0
20105822:	9696                	add	a3,a3,t0
20105824:	8286                	mv	t0,ra
20105826:	fa8680e7          	jalr	-88(a3)
2010582a:	8096                	mv	ra,t0
2010582c:	17c1                	add	a5,a5,-16
2010582e:	8f1d                	sub	a4,a4,a5
20105830:	963e                	add	a2,a2,a5
20105832:	f8c374e3          	bgeu	t1,a2,201057ba <memset+0x2a>
20105836:	b7a5                	j	2010579e <memset+0xe>

20105838 <_free_r>:
_free_r():
20105838:	cdd1                	beqz	a1,201058d4 <_free_r+0x9c>
2010583a:	ffc5a783          	lw	a5,-4(a1)
2010583e:	1101                	add	sp,sp,-32
20105840:	cc22                	sw	s0,24(sp)
20105842:	ce06                	sw	ra,28(sp)
20105844:	ffc58413          	add	s0,a1,-4
20105848:	0007d363          	bgez	a5,2010584e <_free_r+0x16>
2010584c:	943e                	add	s0,s0,a5
2010584e:	c62a                	sw	a0,12(sp)
20105850:	2515                	jal	20105e74 <__malloc_lock>
20105852:	83418713          	add	a4,gp,-1996 # 80000ab4 <__malloc_free_list>
20105856:	431c                	lw	a5,0(a4)
20105858:	4532                	lw	a0,12(sp)
2010585a:	eb81                	bnez	a5,2010586a <_free_r+0x32>
2010585c:	00042223          	sw	zero,4(s0)
20105860:	c300                	sw	s0,0(a4)
20105862:	4462                	lw	s0,24(sp)
20105864:	40f2                	lw	ra,28(sp)
20105866:	6105                	add	sp,sp,32
20105868:	a539                	j	20105e76 <__malloc_unlock>
2010586a:	00f47d63          	bgeu	s0,a5,20105884 <_free_r+0x4c>
2010586e:	4010                	lw	a2,0(s0)
20105870:	00c406b3          	add	a3,s0,a2
20105874:	00d79663          	bne	a5,a3,20105880 <_free_r+0x48>
20105878:	4394                	lw	a3,0(a5)
2010587a:	43dc                	lw	a5,4(a5)
2010587c:	96b2                	add	a3,a3,a2
2010587e:	c014                	sw	a3,0(s0)
20105880:	c05c                	sw	a5,4(s0)
20105882:	bff9                	j	20105860 <_free_r+0x28>
20105884:	873e                	mv	a4,a5
20105886:	43dc                	lw	a5,4(a5)
20105888:	c399                	beqz	a5,2010588e <_free_r+0x56>
2010588a:	fef47de3          	bgeu	s0,a5,20105884 <_free_r+0x4c>
2010588e:	4314                	lw	a3,0(a4)
20105890:	00d70633          	add	a2,a4,a3
20105894:	00861f63          	bne	a2,s0,201058b2 <_free_r+0x7a>
20105898:	4010                	lw	a2,0(s0)
2010589a:	96b2                	add	a3,a3,a2
2010589c:	c314                	sw	a3,0(a4)
2010589e:	00d70633          	add	a2,a4,a3
201058a2:	fcc790e3          	bne	a5,a2,20105862 <_free_r+0x2a>
201058a6:	4390                	lw	a2,0(a5)
201058a8:	43dc                	lw	a5,4(a5)
201058aa:	96b2                	add	a3,a3,a2
201058ac:	c314                	sw	a3,0(a4)
201058ae:	c35c                	sw	a5,4(a4)
201058b0:	bf4d                	j	20105862 <_free_r+0x2a>
201058b2:	00c47563          	bgeu	s0,a2,201058bc <_free_r+0x84>
201058b6:	47b1                	li	a5,12
201058b8:	c11c                	sw	a5,0(a0)
201058ba:	b765                	j	20105862 <_free_r+0x2a>
201058bc:	4010                	lw	a2,0(s0)
201058be:	00c406b3          	add	a3,s0,a2
201058c2:	00d79663          	bne	a5,a3,201058ce <_free_r+0x96>
201058c6:	4394                	lw	a3,0(a5)
201058c8:	43dc                	lw	a5,4(a5)
201058ca:	96b2                	add	a3,a3,a2
201058cc:	c014                	sw	a3,0(s0)
201058ce:	c05c                	sw	a5,4(s0)
201058d0:	c340                	sw	s0,4(a4)
201058d2:	bf41                	j	20105862 <_free_r+0x2a>
201058d4:	8082                	ret

201058d6 <_malloc_r>:
_malloc_r():
201058d6:	1101                	add	sp,sp,-32
201058d8:	ca26                	sw	s1,20(sp)
201058da:	00358493          	add	s1,a1,3
201058de:	98f1                	and	s1,s1,-4
201058e0:	c84a                	sw	s2,16(sp)
201058e2:	ce06                	sw	ra,28(sp)
201058e4:	cc22                	sw	s0,24(sp)
201058e6:	c64e                	sw	s3,12(sp)
201058e8:	04a1                	add	s1,s1,8
201058ea:	47b1                	li	a5,12
201058ec:	892a                	mv	s2,a0
201058ee:	04f4f063          	bgeu	s1,a5,2010592e <_malloc_r+0x58>
201058f2:	44b1                	li	s1,12
201058f4:	02b4ef63          	bltu	s1,a1,20105932 <_malloc_r+0x5c>
201058f8:	854a                	mv	a0,s2
201058fa:	2bad                	jal	20105e74 <__malloc_lock>
201058fc:	83418693          	add	a3,gp,-1996 # 80000ab4 <__malloc_free_list>
20105900:	4298                	lw	a4,0(a3)
20105902:	843a                	mv	s0,a4
20105904:	e031                	bnez	s0,20105948 <_malloc_r+0x72>
20105906:	83018413          	add	s0,gp,-2000 # 80000ab0 <__malloc_sbrk_start>
2010590a:	401c                	lw	a5,0(s0)
2010590c:	e789                	bnez	a5,20105916 <_malloc_r+0x40>
2010590e:	4581                	li	a1,0
20105910:	854a                	mv	a0,s2
20105912:	2e51                	jal	20105ca6 <_sbrk_r>
20105914:	c008                	sw	a0,0(s0)
20105916:	85a6                	mv	a1,s1
20105918:	854a                	mv	a0,s2
2010591a:	2671                	jal	20105ca6 <_sbrk_r>
2010591c:	59fd                	li	s3,-1
2010591e:	07351863          	bne	a0,s3,2010598e <_malloc_r+0xb8>
20105922:	47b1                	li	a5,12
20105924:	00f92023          	sw	a5,0(s2)
20105928:	854a                	mv	a0,s2
2010592a:	23b1                	jal	20105e76 <__malloc_unlock>
2010592c:	a031                	j	20105938 <_malloc_r+0x62>
2010592e:	fc04d3e3          	bgez	s1,201058f4 <_malloc_r+0x1e>
20105932:	47b1                	li	a5,12
20105934:	00f92023          	sw	a5,0(s2)
20105938:	4501                	li	a0,0
2010593a:	40f2                	lw	ra,28(sp)
2010593c:	4462                	lw	s0,24(sp)
2010593e:	44d2                	lw	s1,20(sp)
20105940:	4942                	lw	s2,16(sp)
20105942:	49b2                	lw	s3,12(sp)
20105944:	6105                	add	sp,sp,32
20105946:	8082                	ret
20105948:	401c                	lw	a5,0(s0)
2010594a:	8f85                	sub	a5,a5,s1
2010594c:	0207ce63          	bltz	a5,20105988 <_malloc_r+0xb2>
20105950:	462d                	li	a2,11
20105952:	00f67663          	bgeu	a2,a5,2010595e <_malloc_r+0x88>
20105956:	c01c                	sw	a5,0(s0)
20105958:	943e                	add	s0,s0,a5
2010595a:	c004                	sw	s1,0(s0)
2010595c:	a029                	j	20105966 <_malloc_r+0x90>
2010595e:	405c                	lw	a5,4(s0)
20105960:	02871263          	bne	a4,s0,20105984 <_malloc_r+0xae>
20105964:	c29c                	sw	a5,0(a3)
20105966:	854a                	mv	a0,s2
20105968:	2339                	jal	20105e76 <__malloc_unlock>
2010596a:	00b40513          	add	a0,s0,11
2010596e:	00440793          	add	a5,s0,4
20105972:	9961                	and	a0,a0,-8
20105974:	40f50733          	sub	a4,a0,a5
20105978:	fcf501e3          	beq	a0,a5,2010593a <_malloc_r+0x64>
2010597c:	943a                	add	s0,s0,a4
2010597e:	8f89                	sub	a5,a5,a0
20105980:	c01c                	sw	a5,0(s0)
20105982:	bf65                	j	2010593a <_malloc_r+0x64>
20105984:	c35c                	sw	a5,4(a4)
20105986:	b7c5                	j	20105966 <_malloc_r+0x90>
20105988:	8722                	mv	a4,s0
2010598a:	4040                	lw	s0,4(s0)
2010598c:	bfa5                	j	20105904 <_malloc_r+0x2e>
2010598e:	00350413          	add	s0,a0,3
20105992:	9871                	and	s0,s0,-4
20105994:	fc8503e3          	beq	a0,s0,2010595a <_malloc_r+0x84>
20105998:	40a405b3          	sub	a1,s0,a0
2010599c:	854a                	mv	a0,s2
2010599e:	2621                	jal	20105ca6 <_sbrk_r>
201059a0:	fb351de3          	bne	a0,s3,2010595a <_malloc_r+0x84>
201059a4:	bfbd                	j	20105922 <_malloc_r+0x4c>

201059a6 <__sfputc_r>:
__sfputc_r():
201059a6:	461c                	lw	a5,8(a2)
201059a8:	17fd                	add	a5,a5,-1
201059aa:	c61c                	sw	a5,8(a2)
201059ac:	0007da63          	bgez	a5,201059c0 <__sfputc_r+0x1a>
201059b0:	4e18                	lw	a4,24(a2)
201059b2:	00e7c563          	blt	a5,a4,201059bc <__sfputc_r+0x16>
201059b6:	47a9                	li	a5,10
201059b8:	00f59463          	bne	a1,a5,201059c0 <__sfputc_r+0x1a>
201059bc:	f56ff06f          	j	20105112 <__swbuf_r>
201059c0:	421c                	lw	a5,0(a2)
201059c2:	852e                	mv	a0,a1
201059c4:	00178713          	add	a4,a5,1
201059c8:	c218                	sw	a4,0(a2)
201059ca:	00b78023          	sb	a1,0(a5)
201059ce:	8082                	ret

201059d0 <__sfputs_r>:
__sfputs_r():
201059d0:	1101                	add	sp,sp,-32
201059d2:	cc22                	sw	s0,24(sp)
201059d4:	ca26                	sw	s1,20(sp)
201059d6:	c84a                	sw	s2,16(sp)
201059d8:	c64e                	sw	s3,12(sp)
201059da:	c452                	sw	s4,8(sp)
201059dc:	ce06                	sw	ra,28(sp)
201059de:	892a                	mv	s2,a0
201059e0:	89ae                	mv	s3,a1
201059e2:	8432                	mv	s0,a2
201059e4:	00d604b3          	add	s1,a2,a3
201059e8:	5a7d                	li	s4,-1
201059ea:	00941463          	bne	s0,s1,201059f2 <__sfputs_r+0x22>
201059ee:	4501                	li	a0,0
201059f0:	a809                	j	20105a02 <__sfputs_r+0x32>
201059f2:	00044583          	lbu	a1,0(s0)
201059f6:	864e                	mv	a2,s3
201059f8:	854a                	mv	a0,s2
201059fa:	3775                	jal	201059a6 <__sfputc_r>
201059fc:	0405                	add	s0,s0,1
201059fe:	ff4516e3          	bne	a0,s4,201059ea <__sfputs_r+0x1a>
20105a02:	40f2                	lw	ra,28(sp)
20105a04:	4462                	lw	s0,24(sp)
20105a06:	44d2                	lw	s1,20(sp)
20105a08:	4942                	lw	s2,16(sp)
20105a0a:	49b2                	lw	s3,12(sp)
20105a0c:	4a22                	lw	s4,8(sp)
20105a0e:	6105                	add	sp,sp,32
20105a10:	8082                	ret

20105a12 <_vfiprintf_r>:
_vfiprintf_r():
20105a12:	7135                	add	sp,sp,-160
20105a14:	cd22                	sw	s0,152(sp)
20105a16:	cb26                	sw	s1,148(sp)
20105a18:	c94a                	sw	s2,144(sp)
20105a1a:	c74e                	sw	s3,140(sp)
20105a1c:	cf06                	sw	ra,156(sp)
20105a1e:	c552                	sw	s4,136(sp)
20105a20:	c356                	sw	s5,132(sp)
20105a22:	c15a                	sw	s6,128(sp)
20105a24:	dede                	sw	s7,124(sp)
20105a26:	dce2                	sw	s8,120(sp)
20105a28:	dae6                	sw	s9,116(sp)
20105a2a:	89aa                	mv	s3,a0
20105a2c:	84ae                	mv	s1,a1
20105a2e:	8932                	mv	s2,a2
20105a30:	8436                	mv	s0,a3
20105a32:	c509                	beqz	a0,20105a3c <_vfiprintf_r+0x2a>
20105a34:	4d1c                	lw	a5,24(a0)
20105a36:	e399                	bnez	a5,20105a3c <_vfiprintf_r+0x2a>
20105a38:	aebff0ef          	jal	20105522 <__sinit>
20105a3c:	ffffe797          	auipc	a5,0xffffe
20105a40:	36078793          	add	a5,a5,864 # 20103d9c <__sf_fake_stdin>
20105a44:	0cf49b63          	bne	s1,a5,20105b1a <_vfiprintf_r+0x108>
20105a48:	0049a483          	lw	s1,4(s3)
20105a4c:	00c4d783          	lhu	a5,12(s1)
20105a50:	8ba1                	and	a5,a5,8
20105a52:	c7f5                	beqz	a5,20105b3e <_vfiprintf_r+0x12c>
20105a54:	489c                	lw	a5,16(s1)
20105a56:	c7e5                	beqz	a5,20105b3e <_vfiprintf_r+0x12c>
20105a58:	02000793          	li	a5,32
20105a5c:	02f104a3          	sb	a5,41(sp)
20105a60:	03000793          	li	a5,48
20105a64:	d202                	sw	zero,36(sp)
20105a66:	02f10523          	sb	a5,42(sp)
20105a6a:	c622                	sw	s0,12(sp)
20105a6c:	02500b93          	li	s7,37
20105a70:	ffffba97          	auipc	s5,0xffffb
20105a74:	d54a8a93          	add	s5,s5,-684 # 201007c4 <metal_tty_init+0x4c6>
20105a78:	4c05                	li	s8,1
20105a7a:	4b29                	li	s6,10
20105a7c:	844a                	mv	s0,s2
20105a7e:	00044783          	lbu	a5,0(s0)
20105a82:	c399                	beqz	a5,20105a88 <_vfiprintf_r+0x76>
20105a84:	0f779063          	bne	a5,s7,20105b64 <_vfiprintf_r+0x152>
20105a88:	41240cb3          	sub	s9,s0,s2
20105a8c:	01240d63          	beq	s0,s2,20105aa6 <_vfiprintf_r+0x94>
20105a90:	86e6                	mv	a3,s9
20105a92:	864a                	mv	a2,s2
20105a94:	85a6                	mv	a1,s1
20105a96:	854e                	mv	a0,s3
20105a98:	3f25                	jal	201059d0 <__sfputs_r>
20105a9a:	57fd                	li	a5,-1
20105a9c:	1ef50363          	beq	a0,a5,20105c82 <_vfiprintf_r+0x270>
20105aa0:	5792                	lw	a5,36(sp)
20105aa2:	97e6                	add	a5,a5,s9
20105aa4:	d23e                	sw	a5,36(sp)
20105aa6:	00044783          	lbu	a5,0(s0)
20105aaa:	1c078c63          	beqz	a5,20105c82 <_vfiprintf_r+0x270>
20105aae:	57fd                	li	a5,-1
20105ab0:	00140913          	add	s2,s0,1
20105ab4:	c802                	sw	zero,16(sp)
20105ab6:	ce02                	sw	zero,28(sp)
20105ab8:	ca3e                	sw	a5,20(sp)
20105aba:	cc02                	sw	zero,24(sp)
20105abc:	040109a3          	sb	zero,83(sp)
20105ac0:	d482                	sw	zero,104(sp)
20105ac2:	00094583          	lbu	a1,0(s2)
20105ac6:	4615                	li	a2,5
20105ac8:	8556                	mv	a0,s5
20105aca:	2e41                	jal	20105e5a <memchr>
20105acc:	47c2                	lw	a5,16(sp)
20105ace:	00190413          	add	s0,s2,1
20105ad2:	e959                	bnez	a0,20105b68 <_vfiprintf_r+0x156>
20105ad4:	0107f713          	and	a4,a5,16
20105ad8:	c709                	beqz	a4,20105ae2 <_vfiprintf_r+0xd0>
20105ada:	02000713          	li	a4,32
20105ade:	04e109a3          	sb	a4,83(sp)
20105ae2:	0087f713          	and	a4,a5,8
20105ae6:	c709                	beqz	a4,20105af0 <_vfiprintf_r+0xde>
20105ae8:	02b00713          	li	a4,43
20105aec:	04e109a3          	sb	a4,83(sp)
20105af0:	00094683          	lbu	a3,0(s2)
20105af4:	02a00713          	li	a4,42
20105af8:	08e68063          	beq	a3,a4,20105b78 <_vfiprintf_r+0x166>
20105afc:	47f2                	lw	a5,28(sp)
20105afe:	844a                	mv	s0,s2
20105b00:	4681                	li	a3,0
20105b02:	4625                	li	a2,9
20105b04:	00044703          	lbu	a4,0(s0)
20105b08:	00140593          	add	a1,s0,1
20105b0c:	fd070713          	add	a4,a4,-48
20105b10:	0ae67a63          	bgeu	a2,a4,20105bc4 <_vfiprintf_r+0x1b2>
20105b14:	cab5                	beqz	a3,20105b88 <_vfiprintf_r+0x176>
20105b16:	ce3e                	sw	a5,28(sp)
20105b18:	a885                	j	20105b88 <_vfiprintf_r+0x176>
20105b1a:	ffffe797          	auipc	a5,0xffffe
20105b1e:	26278793          	add	a5,a5,610 # 20103d7c <__sf_fake_stdout>
20105b22:	00f49563          	bne	s1,a5,20105b2c <_vfiprintf_r+0x11a>
20105b26:	0089a483          	lw	s1,8(s3)
20105b2a:	b70d                	j	20105a4c <_vfiprintf_r+0x3a>
20105b2c:	ffffe797          	auipc	a5,0xffffe
20105b30:	23078793          	add	a5,a5,560 # 20103d5c <__sf_fake_stderr>
20105b34:	f0f49ce3          	bne	s1,a5,20105a4c <_vfiprintf_r+0x3a>
20105b38:	00c9a483          	lw	s1,12(s3)
20105b3c:	bf01                	j	20105a4c <_vfiprintf_r+0x3a>
20105b3e:	85a6                	mv	a1,s1
20105b40:	854e                	mv	a0,s3
20105b42:	e90ff0ef          	jal	201051d2 <__swsetup_r>
20105b46:	d909                	beqz	a0,20105a58 <_vfiprintf_r+0x46>
20105b48:	557d                	li	a0,-1
20105b4a:	40fa                	lw	ra,156(sp)
20105b4c:	446a                	lw	s0,152(sp)
20105b4e:	44da                	lw	s1,148(sp)
20105b50:	494a                	lw	s2,144(sp)
20105b52:	49ba                	lw	s3,140(sp)
20105b54:	4a2a                	lw	s4,136(sp)
20105b56:	4a9a                	lw	s5,132(sp)
20105b58:	4b0a                	lw	s6,128(sp)
20105b5a:	5bf6                	lw	s7,124(sp)
20105b5c:	5c66                	lw	s8,120(sp)
20105b5e:	5cd6                	lw	s9,116(sp)
20105b60:	610d                	add	sp,sp,160
20105b62:	8082                	ret
20105b64:	0405                	add	s0,s0,1
20105b66:	bf21                	j	20105a7e <_vfiprintf_r+0x6c>
20105b68:	41550533          	sub	a0,a0,s5
20105b6c:	00ac1533          	sll	a0,s8,a0
20105b70:	8fc9                	or	a5,a5,a0
20105b72:	c83e                	sw	a5,16(sp)
20105b74:	8922                	mv	s2,s0
20105b76:	b7b1                	j	20105ac2 <_vfiprintf_r+0xb0>
20105b78:	4732                	lw	a4,12(sp)
20105b7a:	00470693          	add	a3,a4,4
20105b7e:	4318                	lw	a4,0(a4)
20105b80:	c636                	sw	a3,12(sp)
20105b82:	02074a63          	bltz	a4,20105bb6 <_vfiprintf_r+0x1a4>
20105b86:	ce3a                	sw	a4,28(sp)
20105b88:	00044703          	lbu	a4,0(s0)
20105b8c:	02e00793          	li	a5,46
20105b90:	04f71e63          	bne	a4,a5,20105bec <_vfiprintf_r+0x1da>
20105b94:	00144703          	lbu	a4,1(s0)
20105b98:	02a00793          	li	a5,42
20105b9c:	02f71a63          	bne	a4,a5,20105bd0 <_vfiprintf_r+0x1be>
20105ba0:	47b2                	lw	a5,12(sp)
20105ba2:	0409                	add	s0,s0,2
20105ba4:	00478713          	add	a4,a5,4
20105ba8:	439c                	lw	a5,0(a5)
20105baa:	c63a                	sw	a4,12(sp)
20105bac:	0007d363          	bgez	a5,20105bb2 <_vfiprintf_r+0x1a0>
20105bb0:	57fd                	li	a5,-1
20105bb2:	ca3e                	sw	a5,20(sp)
20105bb4:	a825                	j	20105bec <_vfiprintf_r+0x1da>
20105bb6:	40e00733          	neg	a4,a4
20105bba:	0027e793          	or	a5,a5,2
20105bbe:	ce3a                	sw	a4,28(sp)
20105bc0:	c83e                	sw	a5,16(sp)
20105bc2:	b7d9                	j	20105b88 <_vfiprintf_r+0x176>
20105bc4:	036787b3          	mul	a5,a5,s6
20105bc8:	842e                	mv	s0,a1
20105bca:	4685                	li	a3,1
20105bcc:	97ba                	add	a5,a5,a4
20105bce:	bf1d                	j	20105b04 <_vfiprintf_r+0xf2>
20105bd0:	0405                	add	s0,s0,1
20105bd2:	ca02                	sw	zero,20(sp)
20105bd4:	4681                	li	a3,0
20105bd6:	4781                	li	a5,0
20105bd8:	4625                	li	a2,9
20105bda:	00044703          	lbu	a4,0(s0)
20105bde:	00140593          	add	a1,s0,1
20105be2:	fd070713          	add	a4,a4,-48
20105be6:	06e67463          	bgeu	a2,a4,20105c4e <_vfiprintf_r+0x23c>
20105bea:	f6e1                	bnez	a3,20105bb2 <_vfiprintf_r+0x1a0>
20105bec:	00044583          	lbu	a1,0(s0)
20105bf0:	460d                	li	a2,3
20105bf2:	ffffb517          	auipc	a0,0xffffb
20105bf6:	bda50513          	add	a0,a0,-1062 # 201007cc <metal_tty_init+0x4ce>
20105bfa:	2485                	jal	20105e5a <memchr>
20105bfc:	cd11                	beqz	a0,20105c18 <_vfiprintf_r+0x206>
20105bfe:	ffffb797          	auipc	a5,0xffffb
20105c02:	bce78793          	add	a5,a5,-1074 # 201007cc <metal_tty_init+0x4ce>
20105c06:	8d1d                	sub	a0,a0,a5
20105c08:	47c2                	lw	a5,16(sp)
20105c0a:	04000713          	li	a4,64
20105c0e:	00a71733          	sll	a4,a4,a0
20105c12:	8fd9                	or	a5,a5,a4
20105c14:	0405                	add	s0,s0,1
20105c16:	c83e                	sw	a5,16(sp)
20105c18:	00044583          	lbu	a1,0(s0)
20105c1c:	4619                	li	a2,6
20105c1e:	ffffb517          	auipc	a0,0xffffb
20105c22:	bb250513          	add	a0,a0,-1102 # 201007d0 <metal_tty_init+0x4d2>
20105c26:	00140913          	add	s2,s0,1
20105c2a:	02b10423          	sb	a1,40(sp)
20105c2e:	2435                	jal	20105e5a <memchr>
20105c30:	c12d                	beqz	a0,20105c92 <_vfiprintf_r+0x280>
20105c32:	00000793          	li	a5,0
20105c36:	e795                	bnez	a5,20105c62 <_vfiprintf_r+0x250>
20105c38:	4742                	lw	a4,16(sp)
20105c3a:	47b2                	lw	a5,12(sp)
20105c3c:	10077713          	and	a4,a4,256
20105c40:	cf09                	beqz	a4,20105c5a <_vfiprintf_r+0x248>
20105c42:	0791                	add	a5,a5,4
20105c44:	c63e                	sw	a5,12(sp)
20105c46:	5792                	lw	a5,36(sp)
20105c48:	97d2                	add	a5,a5,s4
20105c4a:	d23e                	sw	a5,36(sp)
20105c4c:	bd05                	j	20105a7c <_vfiprintf_r+0x6a>
20105c4e:	036787b3          	mul	a5,a5,s6
20105c52:	842e                	mv	s0,a1
20105c54:	4685                	li	a3,1
20105c56:	97ba                	add	a5,a5,a4
20105c58:	b749                	j	20105bda <_vfiprintf_r+0x1c8>
20105c5a:	079d                	add	a5,a5,7
20105c5c:	9be1                	and	a5,a5,-8
20105c5e:	07a1                	add	a5,a5,8
20105c60:	b7d5                	j	20105c44 <_vfiprintf_r+0x232>
20105c62:	0078                	add	a4,sp,12
20105c64:	00000697          	auipc	a3,0x0
20105c68:	d6c68693          	add	a3,a3,-660 # 201059d0 <__sfputs_r>
20105c6c:	8626                	mv	a2,s1
20105c6e:	080c                	add	a1,sp,16
20105c70:	854e                	mv	a0,s3
20105c72:	00000097          	auipc	ra,0x0
20105c76:	000000e7          	jalr	zero # 0 <__metal_boot_hart>
20105c7a:	57fd                	li	a5,-1
20105c7c:	8a2a                	mv	s4,a0
20105c7e:	fcf514e3          	bne	a0,a5,20105c46 <_vfiprintf_r+0x234>
20105c82:	00c4d783          	lhu	a5,12(s1)
20105c86:	0407f793          	and	a5,a5,64
20105c8a:	ea079fe3          	bnez	a5,20105b48 <_vfiprintf_r+0x136>
20105c8e:	5512                	lw	a0,36(sp)
20105c90:	bd6d                	j	20105b4a <_vfiprintf_r+0x138>
20105c92:	0078                	add	a4,sp,12
20105c94:	00000697          	auipc	a3,0x0
20105c98:	d3c68693          	add	a3,a3,-708 # 201059d0 <__sfputs_r>
20105c9c:	8626                	mv	a2,s1
20105c9e:	080c                	add	a1,sp,16
20105ca0:	854e                	mv	a0,s3
20105ca2:	24dd                	jal	20105f88 <_printf_i>
20105ca4:	bfd9                	j	20105c7a <_vfiprintf_r+0x268>

20105ca6 <_sbrk_r>:
_sbrk_r():
20105ca6:	1141                	add	sp,sp,-16
20105ca8:	c422                	sw	s0,8(sp)
20105caa:	842a                	mv	s0,a0
20105cac:	852e                	mv	a0,a1
20105cae:	8201ac23          	sw	zero,-1992(gp) # 80000ab8 <errno>
20105cb2:	c606                	sw	ra,12(sp)
20105cb4:	0b1020ef          	jal	20108564 <_sbrk>
20105cb8:	57fd                	li	a5,-1
20105cba:	00f51663          	bne	a0,a5,20105cc6 <_sbrk_r+0x20>
20105cbe:	8381a783          	lw	a5,-1992(gp) # 80000ab8 <errno>
20105cc2:	c391                	beqz	a5,20105cc6 <_sbrk_r+0x20>
20105cc4:	c01c                	sw	a5,0(s0)
20105cc6:	40b2                	lw	ra,12(sp)
20105cc8:	4422                	lw	s0,8(sp)
20105cca:	0141                	add	sp,sp,16
20105ccc:	8082                	ret

20105cce <__sread>:
__sread():
20105cce:	1141                	add	sp,sp,-16
20105cd0:	c422                	sw	s0,8(sp)
20105cd2:	842e                	mv	s0,a1
20105cd4:	00e59583          	lh	a1,14(a1)
20105cd8:	c606                	sw	ra,12(sp)
20105cda:	2315                	jal	201061fe <_read_r>
20105cdc:	00054963          	bltz	a0,20105cee <__sread+0x20>
20105ce0:	487c                	lw	a5,84(s0)
20105ce2:	97aa                	add	a5,a5,a0
20105ce4:	c87c                	sw	a5,84(s0)
20105ce6:	40b2                	lw	ra,12(sp)
20105ce8:	4422                	lw	s0,8(sp)
20105cea:	0141                	add	sp,sp,16
20105cec:	8082                	ret
20105cee:	00c45783          	lhu	a5,12(s0)
20105cf2:	777d                	lui	a4,0xfffff
20105cf4:	177d                	add	a4,a4,-1 # ffffefff <metal_segment_heap_target_end+0x7fffd88f>
20105cf6:	8ff9                	and	a5,a5,a4
20105cf8:	00f41623          	sh	a5,12(s0)
20105cfc:	b7ed                	j	20105ce6 <__sread+0x18>

20105cfe <__swrite>:
__swrite():
20105cfe:	00c5d783          	lhu	a5,12(a1)
20105d02:	1101                	add	sp,sp,-32
20105d04:	cc22                	sw	s0,24(sp)
20105d06:	ca26                	sw	s1,20(sp)
20105d08:	c84a                	sw	s2,16(sp)
20105d0a:	c64e                	sw	s3,12(sp)
20105d0c:	ce06                	sw	ra,28(sp)
20105d0e:	1007f793          	and	a5,a5,256
20105d12:	84aa                	mv	s1,a0
20105d14:	842e                	mv	s0,a1
20105d16:	8932                	mv	s2,a2
20105d18:	89b6                	mv	s3,a3
20105d1a:	c791                	beqz	a5,20105d26 <__swrite+0x28>
20105d1c:	00e59583          	lh	a1,14(a1)
20105d20:	4689                	li	a3,2
20105d22:	4601                	li	a2,0
20105d24:	2229                	jal	20105e2e <_lseek_r>
20105d26:	00c45783          	lhu	a5,12(s0)
20105d2a:	777d                	lui	a4,0xfffff
20105d2c:	177d                	add	a4,a4,-1 # ffffefff <metal_segment_heap_target_end+0x7fffd88f>
20105d2e:	8ff9                	and	a5,a5,a4
20105d30:	00e41583          	lh	a1,14(s0)
20105d34:	00f41623          	sh	a5,12(s0)
20105d38:	4462                	lw	s0,24(sp)
20105d3a:	40f2                	lw	ra,28(sp)
20105d3c:	86ce                	mv	a3,s3
20105d3e:	864a                	mv	a2,s2
20105d40:	49b2                	lw	s3,12(sp)
20105d42:	4942                	lw	s2,16(sp)
20105d44:	8526                	mv	a0,s1
20105d46:	44d2                	lw	s1,20(sp)
20105d48:	6105                	add	sp,sp,32
20105d4a:	a83d                	j	20105d88 <_write_r>

20105d4c <__sseek>:
__sseek():
20105d4c:	1141                	add	sp,sp,-16
20105d4e:	c422                	sw	s0,8(sp)
20105d50:	842e                	mv	s0,a1
20105d52:	00e59583          	lh	a1,14(a1)
20105d56:	c606                	sw	ra,12(sp)
20105d58:	28d9                	jal	20105e2e <_lseek_r>
20105d5a:	577d                	li	a4,-1
20105d5c:	00c45783          	lhu	a5,12(s0)
20105d60:	00e51b63          	bne	a0,a4,20105d76 <__sseek+0x2a>
20105d64:	777d                	lui	a4,0xfffff
20105d66:	177d                	add	a4,a4,-1 # ffffefff <metal_segment_heap_target_end+0x7fffd88f>
20105d68:	8ff9                	and	a5,a5,a4
20105d6a:	00f41623          	sh	a5,12(s0)
20105d6e:	40b2                	lw	ra,12(sp)
20105d70:	4422                	lw	s0,8(sp)
20105d72:	0141                	add	sp,sp,16
20105d74:	8082                	ret
20105d76:	6705                	lui	a4,0x1
20105d78:	8fd9                	or	a5,a5,a4
20105d7a:	00f41623          	sh	a5,12(s0)
20105d7e:	c868                	sw	a0,84(s0)
20105d80:	b7fd                	j	20105d6e <__sseek+0x22>

20105d82 <__sclose>:
__sclose():
20105d82:	00e59583          	lh	a1,14(a1)
20105d86:	a03d                	j	20105db4 <_close_r>

20105d88 <_write_r>:
_write_r():
20105d88:	1141                	add	sp,sp,-16
20105d8a:	c422                	sw	s0,8(sp)
20105d8c:	842a                	mv	s0,a0
20105d8e:	852e                	mv	a0,a1
20105d90:	85b2                	mv	a1,a2
20105d92:	8636                	mv	a2,a3
20105d94:	8201ac23          	sw	zero,-1992(gp) # 80000ab8 <errno>
20105d98:	c606                	sw	ra,12(sp)
20105d9a:	003020ef          	jal	2010859c <_write>
20105d9e:	57fd                	li	a5,-1
20105da0:	00f51663          	bne	a0,a5,20105dac <_write_r+0x24>
20105da4:	8381a783          	lw	a5,-1992(gp) # 80000ab8 <errno>
20105da8:	c391                	beqz	a5,20105dac <_write_r+0x24>
20105daa:	c01c                	sw	a5,0(s0)
20105dac:	40b2                	lw	ra,12(sp)
20105dae:	4422                	lw	s0,8(sp)
20105db0:	0141                	add	sp,sp,16
20105db2:	8082                	ret

20105db4 <_close_r>:
_close_r():
20105db4:	1141                	add	sp,sp,-16
20105db6:	c422                	sw	s0,8(sp)
20105db8:	842a                	mv	s0,a0
20105dba:	852e                	mv	a0,a1
20105dbc:	8201ac23          	sw	zero,-1992(gp) # 80000ab8 <errno>
20105dc0:	c606                	sw	ra,12(sp)
20105dc2:	74a020ef          	jal	2010850c <_close>
20105dc6:	57fd                	li	a5,-1
20105dc8:	00f51663          	bne	a0,a5,20105dd4 <_close_r+0x20>
20105dcc:	8381a783          	lw	a5,-1992(gp) # 80000ab8 <errno>
20105dd0:	c391                	beqz	a5,20105dd4 <_close_r+0x20>
20105dd2:	c01c                	sw	a5,0(s0)
20105dd4:	40b2                	lw	ra,12(sp)
20105dd6:	4422                	lw	s0,8(sp)
20105dd8:	0141                	add	sp,sp,16
20105dda:	8082                	ret

20105ddc <_fstat_r>:
_fstat_r():
20105ddc:	1141                	add	sp,sp,-16
20105dde:	c422                	sw	s0,8(sp)
20105de0:	842a                	mv	s0,a0
20105de2:	852e                	mv	a0,a1
20105de4:	85b2                	mv	a1,a2
20105de6:	8201ac23          	sw	zero,-1992(gp) # 80000ab8 <errno>
20105dea:	c606                	sw	ra,12(sp)
20105dec:	734020ef          	jal	20108520 <_fstat>
20105df0:	57fd                	li	a5,-1
20105df2:	00f51663          	bne	a0,a5,20105dfe <_fstat_r+0x22>
20105df6:	8381a783          	lw	a5,-1992(gp) # 80000ab8 <errno>
20105dfa:	c391                	beqz	a5,20105dfe <_fstat_r+0x22>
20105dfc:	c01c                	sw	a5,0(s0)
20105dfe:	40b2                	lw	ra,12(sp)
20105e00:	4422                	lw	s0,8(sp)
20105e02:	0141                	add	sp,sp,16
20105e04:	8082                	ret

20105e06 <_isatty_r>:
_isatty_r():
20105e06:	1141                	add	sp,sp,-16
20105e08:	c422                	sw	s0,8(sp)
20105e0a:	842a                	mv	s0,a0
20105e0c:	852e                	mv	a0,a1
20105e0e:	8201ac23          	sw	zero,-1992(gp) # 80000ab8 <errno>
20105e12:	c606                	sw	ra,12(sp)
20105e14:	720020ef          	jal	20108534 <_isatty>
20105e18:	57fd                	li	a5,-1
20105e1a:	00f51663          	bne	a0,a5,20105e26 <_isatty_r+0x20>
20105e1e:	8381a783          	lw	a5,-1992(gp) # 80000ab8 <errno>
20105e22:	c391                	beqz	a5,20105e26 <_isatty_r+0x20>
20105e24:	c01c                	sw	a5,0(s0)
20105e26:	40b2                	lw	ra,12(sp)
20105e28:	4422                	lw	s0,8(sp)
20105e2a:	0141                	add	sp,sp,16
20105e2c:	8082                	ret

20105e2e <_lseek_r>:
_lseek_r():
20105e2e:	1141                	add	sp,sp,-16
20105e30:	c422                	sw	s0,8(sp)
20105e32:	842a                	mv	s0,a0
20105e34:	852e                	mv	a0,a1
20105e36:	85b2                	mv	a1,a2
20105e38:	8636                	mv	a2,a3
20105e3a:	8201ac23          	sw	zero,-1992(gp) # 80000ab8 <errno>
20105e3e:	c606                	sw	ra,12(sp)
20105e40:	6fc020ef          	jal	2010853c <_lseek>
20105e44:	57fd                	li	a5,-1
20105e46:	00f51663          	bne	a0,a5,20105e52 <_lseek_r+0x24>
20105e4a:	8381a783          	lw	a5,-1992(gp) # 80000ab8 <errno>
20105e4e:	c391                	beqz	a5,20105e52 <_lseek_r+0x24>
20105e50:	c01c                	sw	a5,0(s0)
20105e52:	40b2                	lw	ra,12(sp)
20105e54:	4422                	lw	s0,8(sp)
20105e56:	0141                	add	sp,sp,16
20105e58:	8082                	ret

20105e5a <memchr>:
memchr():
20105e5a:	0ff5f593          	zext.b	a1,a1
20105e5e:	962a                	add	a2,a2,a0
20105e60:	00c51463          	bne	a0,a2,20105e68 <memchr+0xe>
20105e64:	4501                	li	a0,0
20105e66:	8082                	ret
20105e68:	00054783          	lbu	a5,0(a0)
20105e6c:	feb78de3          	beq	a5,a1,20105e66 <memchr+0xc>
20105e70:	0505                	add	a0,a0,1
20105e72:	b7fd                	j	20105e60 <memchr+0x6>

20105e74 <__malloc_lock>:
__malloc_lock():
20105e74:	8082                	ret

20105e76 <__malloc_unlock>:
__malloc_unlock():
20105e76:	8082                	ret

20105e78 <_printf_common>:
_printf_common():
20105e78:	7179                	add	sp,sp,-48
20105e7a:	ca56                	sw	s5,20(sp)
20105e7c:	499c                	lw	a5,16(a1)
20105e7e:	8aba                	mv	s5,a4
20105e80:	4598                	lw	a4,8(a1)
20105e82:	d422                	sw	s0,40(sp)
20105e84:	d04a                	sw	s2,32(sp)
20105e86:	ce4e                	sw	s3,28(sp)
20105e88:	cc52                	sw	s4,24(sp)
20105e8a:	d606                	sw	ra,44(sp)
20105e8c:	d226                	sw	s1,36(sp)
20105e8e:	c85a                	sw	s6,16(sp)
20105e90:	c65e                	sw	s7,12(sp)
20105e92:	89aa                	mv	s3,a0
20105e94:	842e                	mv	s0,a1
20105e96:	8932                	mv	s2,a2
20105e98:	8a36                	mv	s4,a3
20105e9a:	00e7d363          	bge	a5,a4,20105ea0 <_printf_common+0x28>
20105e9e:	87ba                	mv	a5,a4
20105ea0:	00f92023          	sw	a5,0(s2)
20105ea4:	04344703          	lbu	a4,67(s0)
20105ea8:	c701                	beqz	a4,20105eb0 <_printf_common+0x38>
20105eaa:	0785                	add	a5,a5,1
20105eac:	00f92023          	sw	a5,0(s2)
20105eb0:	401c                	lw	a5,0(s0)
20105eb2:	0207f793          	and	a5,a5,32
20105eb6:	c791                	beqz	a5,20105ec2 <_printf_common+0x4a>
20105eb8:	00092783          	lw	a5,0(s2)
20105ebc:	0789                	add	a5,a5,2
20105ebe:	00f92023          	sw	a5,0(s2)
20105ec2:	4004                	lw	s1,0(s0)
20105ec4:	8899                	and	s1,s1,6
20105ec6:	e891                	bnez	s1,20105eda <_printf_common+0x62>
20105ec8:	01940b13          	add	s6,s0,25
20105ecc:	5bfd                	li	s7,-1
20105ece:	445c                	lw	a5,12(s0)
20105ed0:	00092703          	lw	a4,0(s2)
20105ed4:	8f99                	sub	a5,a5,a4
20105ed6:	04f4cc63          	blt	s1,a5,20105f2e <_printf_common+0xb6>
20105eda:	04344783          	lbu	a5,67(s0)
20105ede:	00f036b3          	snez	a3,a5
20105ee2:	401c                	lw	a5,0(s0)
20105ee4:	0207f793          	and	a5,a5,32
20105ee8:	eba5                	bnez	a5,20105f58 <_printf_common+0xe0>
20105eea:	04340613          	add	a2,s0,67
20105eee:	85d2                	mv	a1,s4
20105ef0:	854e                	mv	a0,s3
20105ef2:	9a82                	jalr	s5
20105ef4:	57fd                	li	a5,-1
20105ef6:	04f50363          	beq	a0,a5,20105f3c <_printf_common+0xc4>
20105efa:	401c                	lw	a5,0(s0)
20105efc:	4711                	li	a4,4
20105efe:	4481                	li	s1,0
20105f00:	8b99                	and	a5,a5,6
20105f02:	00e79963          	bne	a5,a4,20105f14 <_printf_common+0x9c>
20105f06:	4444                	lw	s1,12(s0)
20105f08:	00092783          	lw	a5,0(s2)
20105f0c:	8c9d                	sub	s1,s1,a5
20105f0e:	0004d363          	bgez	s1,20105f14 <_printf_common+0x9c>
20105f12:	4481                	li	s1,0
20105f14:	441c                	lw	a5,8(s0)
20105f16:	4818                	lw	a4,16(s0)
20105f18:	00f75463          	bge	a4,a5,20105f20 <_printf_common+0xa8>
20105f1c:	8f99                	sub	a5,a5,a4
20105f1e:	94be                	add	s1,s1,a5
20105f20:	4901                	li	s2,0
20105f22:	0469                	add	s0,s0,26
20105f24:	5b7d                	li	s6,-1
20105f26:	05249863          	bne	s1,s2,20105f76 <_printf_common+0xfe>
20105f2a:	4501                	li	a0,0
20105f2c:	a809                	j	20105f3e <_printf_common+0xc6>
20105f2e:	4685                	li	a3,1
20105f30:	865a                	mv	a2,s6
20105f32:	85d2                	mv	a1,s4
20105f34:	854e                	mv	a0,s3
20105f36:	9a82                	jalr	s5
20105f38:	01751e63          	bne	a0,s7,20105f54 <_printf_common+0xdc>
20105f3c:	557d                	li	a0,-1
20105f3e:	50b2                	lw	ra,44(sp)
20105f40:	5422                	lw	s0,40(sp)
20105f42:	5492                	lw	s1,36(sp)
20105f44:	5902                	lw	s2,32(sp)
20105f46:	49f2                	lw	s3,28(sp)
20105f48:	4a62                	lw	s4,24(sp)
20105f4a:	4ad2                	lw	s5,20(sp)
20105f4c:	4b42                	lw	s6,16(sp)
20105f4e:	4bb2                	lw	s7,12(sp)
20105f50:	6145                	add	sp,sp,48
20105f52:	8082                	ret
20105f54:	0485                	add	s1,s1,1
20105f56:	bfa5                	j	20105ece <_printf_common+0x56>
20105f58:	00d40733          	add	a4,s0,a3
20105f5c:	03000613          	li	a2,48
20105f60:	04c701a3          	sb	a2,67(a4) # 1043 <__heap_size+0x843>
20105f64:	04544703          	lbu	a4,69(s0)
20105f68:	00168793          	add	a5,a3,1
20105f6c:	97a2                	add	a5,a5,s0
20105f6e:	0689                	add	a3,a3,2
20105f70:	04e781a3          	sb	a4,67(a5)
20105f74:	bf9d                	j	20105eea <_printf_common+0x72>
20105f76:	4685                	li	a3,1
20105f78:	8622                	mv	a2,s0
20105f7a:	85d2                	mv	a1,s4
20105f7c:	854e                	mv	a0,s3
20105f7e:	9a82                	jalr	s5
20105f80:	fb650ee3          	beq	a0,s6,20105f3c <_printf_common+0xc4>
20105f84:	0905                	add	s2,s2,1
20105f86:	b745                	j	20105f26 <_printf_common+0xae>

20105f88 <_printf_i>:
_printf_i():
20105f88:	7179                	add	sp,sp,-48
20105f8a:	d422                	sw	s0,40(sp)
20105f8c:	d04a                	sw	s2,32(sp)
20105f8e:	ce4e                	sw	s3,28(sp)
20105f90:	cc52                	sw	s4,24(sp)
20105f92:	d606                	sw	ra,44(sp)
20105f94:	d226                	sw	s1,36(sp)
20105f96:	ca56                	sw	s5,20(sp)
20105f98:	c85a                	sw	s6,16(sp)
20105f9a:	0185c803          	lbu	a6,24(a1)
20105f9e:	07800793          	li	a5,120
20105fa2:	892a                	mv	s2,a0
20105fa4:	842e                	mv	s0,a1
20105fa6:	89b2                	mv	s3,a2
20105fa8:	8a36                	mv	s4,a3
20105faa:	0307e263          	bltu	a5,a6,20105fce <_printf_i+0x46>
20105fae:	06200793          	li	a5,98
20105fb2:	04358693          	add	a3,a1,67
20105fb6:	0307e163          	bltu	a5,a6,20105fd8 <_printf_i+0x50>
20105fba:	1c080a63          	beqz	a6,2010618e <_printf_i+0x206>
20105fbe:	05800793          	li	a5,88
20105fc2:	ffffb617          	auipc	a2,0xffffb
20105fc6:	81660613          	add	a2,a2,-2026 # 201007d8 <metal_tty_init+0x4da>
20105fca:	14f80763          	beq	a6,a5,20106118 <_printf_i+0x190>
20105fce:	04240493          	add	s1,s0,66
20105fd2:	05040123          	sb	a6,66(s0)
20105fd6:	a815                	j	2010600a <_printf_i+0x82>
20105fd8:	f9d80793          	add	a5,a6,-99
20105fdc:	0ff7f793          	zext.b	a5,a5
20105fe0:	4655                	li	a2,21
20105fe2:	fef666e3          	bltu	a2,a5,20105fce <_printf_i+0x46>
20105fe6:	ffffe617          	auipc	a2,0xffffe
20105fea:	dd660613          	add	a2,a2,-554 # 20103dbc <__sf_fake_stdin+0x20>
20105fee:	078a                	sll	a5,a5,0x2
20105ff0:	97b2                	add	a5,a5,a2
20105ff2:	439c                	lw	a5,0(a5)
20105ff4:	97b2                	add	a5,a5,a2
20105ff6:	8782                	jr	a5
20105ff8:	431c                	lw	a5,0(a4)
20105ffa:	04258493          	add	s1,a1,66
20105ffe:	00478693          	add	a3,a5,4
20106002:	439c                	lw	a5,0(a5)
20106004:	c314                	sw	a3,0(a4)
20106006:	04f58123          	sb	a5,66(a1)
2010600a:	4785                	li	a5,1
2010600c:	a255                	j	201061b0 <_printf_i+0x228>
2010600e:	4190                	lw	a2,0(a1)
20106010:	431c                	lw	a5,0(a4)
20106012:	08067513          	and	a0,a2,128
20106016:	00478593          	add	a1,a5,4
2010601a:	c139                	beqz	a0,20106060 <_printf_i+0xd8>
2010601c:	439c                	lw	a5,0(a5)
2010601e:	c30c                	sw	a1,0(a4)
20106020:	4058                	lw	a4,4(s0)
20106022:	1207dc63          	bgez	a5,2010615a <_printf_i+0x1d2>
20106026:	02d00593          	li	a1,45
2010602a:	04b401a3          	sb	a1,67(s0)
2010602e:	c418                	sw	a4,8(s0)
20106030:	04075063          	bgez	a4,20106070 <_printf_i+0xe8>
20106034:	40f007b3          	neg	a5,a5
20106038:	ffffa617          	auipc	a2,0xffffa
2010603c:	7a060613          	add	a2,a2,1952 # 201007d8 <metal_tty_init+0x4da>
20106040:	4829                	li	a6,10
20106042:	84b6                	mv	s1,a3
20106044:	0307f733          	remu	a4,a5,a6
20106048:	14fd                	add	s1,s1,-1
2010604a:	9732                	add	a4,a4,a2
2010604c:	00074703          	lbu	a4,0(a4)
20106050:	00e48023          	sb	a4,0(s1)
20106054:	873e                	mv	a4,a5
20106056:	0307d7b3          	divu	a5,a5,a6
2010605a:	ff0775e3          	bgeu	a4,a6,20106044 <_printf_i+0xbc>
2010605e:	a8b1                	j	201060ba <_printf_i+0x132>
20106060:	439c                	lw	a5,0(a5)
20106062:	04067513          	and	a0,a2,64
20106066:	c30c                	sw	a1,0(a4)
20106068:	dd45                	beqz	a0,20106020 <_printf_i+0x98>
2010606a:	07c2                	sll	a5,a5,0x10
2010606c:	87c1                	sra	a5,a5,0x10
2010606e:	bf4d                	j	20106020 <_printf_i+0x98>
20106070:	9a6d                	and	a2,a2,-5
20106072:	c010                	sw	a2,0(s0)
20106074:	b7c1                	j	20106034 <_printf_i+0xac>
20106076:	418c                	lw	a1,0(a1)
20106078:	4310                	lw	a2,0(a4)
2010607a:	0805f513          	and	a0,a1,128
2010607e:	421c                	lw	a5,0(a2)
20106080:	0611                	add	a2,a2,4
20106082:	e511                	bnez	a0,2010608e <_printf_i+0x106>
20106084:	0405f593          	and	a1,a1,64
20106088:	c199                	beqz	a1,2010608e <_printf_i+0x106>
2010608a:	07c2                	sll	a5,a5,0x10
2010608c:	83c1                	srl	a5,a5,0x10
2010608e:	c310                	sw	a2,0(a4)
20106090:	06f00713          	li	a4,111
20106094:	ffffa617          	auipc	a2,0xffffa
20106098:	74460613          	add	a2,a2,1860 # 201007d8 <metal_tty_init+0x4da>
2010609c:	0ae81d63          	bne	a6,a4,20106156 <_printf_i+0x1ce>
201060a0:	4821                	li	a6,8
201060a2:	040401a3          	sb	zero,67(s0)
201060a6:	4058                	lw	a4,4(s0)
201060a8:	c418                	sw	a4,8(s0)
201060aa:	f8074ce3          	bltz	a4,20106042 <_printf_i+0xba>
201060ae:	400c                	lw	a1,0(s0)
201060b0:	99ed                	and	a1,a1,-5
201060b2:	c00c                	sw	a1,0(s0)
201060b4:	f7d9                	bnez	a5,20106042 <_printf_i+0xba>
201060b6:	84b6                	mv	s1,a3
201060b8:	f749                	bnez	a4,20106042 <_printf_i+0xba>
201060ba:	47a1                	li	a5,8
201060bc:	00f81e63          	bne	a6,a5,201060d8 <_printf_i+0x150>
201060c0:	401c                	lw	a5,0(s0)
201060c2:	8b85                	and	a5,a5,1
201060c4:	cb91                	beqz	a5,201060d8 <_printf_i+0x150>
201060c6:	4058                	lw	a4,4(s0)
201060c8:	481c                	lw	a5,16(s0)
201060ca:	00e7c763          	blt	a5,a4,201060d8 <_printf_i+0x150>
201060ce:	03000793          	li	a5,48
201060d2:	fef48fa3          	sb	a5,-1(s1)
201060d6:	14fd                	add	s1,s1,-1
201060d8:	8e85                	sub	a3,a3,s1
201060da:	c814                	sw	a3,16(s0)
201060dc:	8752                	mv	a4,s4
201060de:	86ce                	mv	a3,s3
201060e0:	0070                	add	a2,sp,12
201060e2:	85a2                	mv	a1,s0
201060e4:	854a                	mv	a0,s2
201060e6:	3b49                	jal	20105e78 <_printf_common>
201060e8:	5afd                	li	s5,-1
201060ea:	0d551763          	bne	a0,s5,201061b8 <_printf_i+0x230>
201060ee:	557d                	li	a0,-1
201060f0:	50b2                	lw	ra,44(sp)
201060f2:	5422                	lw	s0,40(sp)
201060f4:	5492                	lw	s1,36(sp)
201060f6:	5902                	lw	s2,32(sp)
201060f8:	49f2                	lw	s3,28(sp)
201060fa:	4a62                	lw	s4,24(sp)
201060fc:	4ad2                	lw	s5,20(sp)
201060fe:	4b42                	lw	s6,16(sp)
20106100:	6145                	add	sp,sp,48
20106102:	8082                	ret
20106104:	419c                	lw	a5,0(a1)
20106106:	0207e793          	or	a5,a5,32
2010610a:	c19c                	sw	a5,0(a1)
2010610c:	07800813          	li	a6,120
20106110:	ffffa617          	auipc	a2,0xffffa
20106114:	6dc60613          	add	a2,a2,1756 # 201007ec <metal_tty_init+0x4ee>
20106118:	050402a3          	sb	a6,69(s0)
2010611c:	400c                	lw	a1,0(s0)
2010611e:	4308                	lw	a0,0(a4)
20106120:	0805f813          	and	a6,a1,128
20106124:	411c                	lw	a5,0(a0)
20106126:	0511                	add	a0,a0,4
20106128:	00081863          	bnez	a6,20106138 <_printf_i+0x1b0>
2010612c:	0405f813          	and	a6,a1,64
20106130:	00080463          	beqz	a6,20106138 <_printf_i+0x1b0>
20106134:	07c2                	sll	a5,a5,0x10
20106136:	83c1                	srl	a5,a5,0x10
20106138:	c308                	sw	a0,0(a4)
2010613a:	0015f713          	and	a4,a1,1
2010613e:	c701                	beqz	a4,20106146 <_printf_i+0x1be>
20106140:	0205e593          	or	a1,a1,32
20106144:	c00c                	sw	a1,0(s0)
20106146:	c399                	beqz	a5,2010614c <_printf_i+0x1c4>
20106148:	4841                	li	a6,16
2010614a:	bfa1                	j	201060a2 <_printf_i+0x11a>
2010614c:	4018                	lw	a4,0(s0)
2010614e:	fdf77713          	and	a4,a4,-33
20106152:	c018                	sw	a4,0(s0)
20106154:	bfd5                	j	20106148 <_printf_i+0x1c0>
20106156:	4829                	li	a6,10
20106158:	b7a9                	j	201060a2 <_printf_i+0x11a>
2010615a:	ffffa617          	auipc	a2,0xffffa
2010615e:	67e60613          	add	a2,a2,1662 # 201007d8 <metal_tty_init+0x4da>
20106162:	4829                	li	a6,10
20106164:	b789                	j	201060a6 <_printf_i+0x11e>
20106166:	4190                	lw	a2,0(a1)
20106168:	431c                	lw	a5,0(a4)
2010616a:	49cc                	lw	a1,20(a1)
2010616c:	08067813          	and	a6,a2,128
20106170:	00478513          	add	a0,a5,4
20106174:	00080663          	beqz	a6,20106180 <_printf_i+0x1f8>
20106178:	c308                	sw	a0,0(a4)
2010617a:	439c                	lw	a5,0(a5)
2010617c:	c38c                	sw	a1,0(a5)
2010617e:	a801                	j	2010618e <_printf_i+0x206>
20106180:	c308                	sw	a0,0(a4)
20106182:	04067613          	and	a2,a2,64
20106186:	439c                	lw	a5,0(a5)
20106188:	da75                	beqz	a2,2010617c <_printf_i+0x1f4>
2010618a:	00b79023          	sh	a1,0(a5)
2010618e:	00042823          	sw	zero,16(s0)
20106192:	84b6                	mv	s1,a3
20106194:	b7a1                	j	201060dc <_printf_i+0x154>
20106196:	431c                	lw	a5,0(a4)
20106198:	41d0                	lw	a2,4(a1)
2010619a:	4581                	li	a1,0
2010619c:	00478693          	add	a3,a5,4
201061a0:	c314                	sw	a3,0(a4)
201061a2:	4384                	lw	s1,0(a5)
201061a4:	8526                	mv	a0,s1
201061a6:	3955                	jal	20105e5a <memchr>
201061a8:	c119                	beqz	a0,201061ae <_printf_i+0x226>
201061aa:	8d05                	sub	a0,a0,s1
201061ac:	c048                	sw	a0,4(s0)
201061ae:	405c                	lw	a5,4(s0)
201061b0:	c81c                	sw	a5,16(s0)
201061b2:	040401a3          	sb	zero,67(s0)
201061b6:	b71d                	j	201060dc <_printf_i+0x154>
201061b8:	4814                	lw	a3,16(s0)
201061ba:	8626                	mv	a2,s1
201061bc:	85ce                	mv	a1,s3
201061be:	854a                	mv	a0,s2
201061c0:	9a02                	jalr	s4
201061c2:	f35506e3          	beq	a0,s5,201060ee <_printf_i+0x166>
201061c6:	401c                	lw	a5,0(s0)
201061c8:	8b89                	and	a5,a5,2
201061ca:	e78d                	bnez	a5,201061f4 <_printf_i+0x26c>
201061cc:	47b2                	lw	a5,12(sp)
201061ce:	4448                	lw	a0,12(s0)
201061d0:	f2f550e3          	bge	a0,a5,201060f0 <_printf_i+0x168>
201061d4:	853e                	mv	a0,a5
201061d6:	bf29                	j	201060f0 <_printf_i+0x168>
201061d8:	4685                	li	a3,1
201061da:	8656                	mv	a2,s5
201061dc:	85ce                	mv	a1,s3
201061de:	854a                	mv	a0,s2
201061e0:	9a02                	jalr	s4
201061e2:	f16506e3          	beq	a0,s6,201060ee <_printf_i+0x166>
201061e6:	0485                	add	s1,s1,1
201061e8:	445c                	lw	a5,12(s0)
201061ea:	4732                	lw	a4,12(sp)
201061ec:	8f99                	sub	a5,a5,a4
201061ee:	fef4c5e3          	blt	s1,a5,201061d8 <_printf_i+0x250>
201061f2:	bfe9                	j	201061cc <_printf_i+0x244>
201061f4:	4481                	li	s1,0
201061f6:	01940a93          	add	s5,s0,25
201061fa:	5b7d                	li	s6,-1
201061fc:	b7f5                	j	201061e8 <_printf_i+0x260>

201061fe <_read_r>:
_read_r():
201061fe:	1141                	add	sp,sp,-16
20106200:	c422                	sw	s0,8(sp)
20106202:	842a                	mv	s0,a0
20106204:	852e                	mv	a0,a1
20106206:	85b2                	mv	a1,a2
20106208:	8636                	mv	a2,a3
2010620a:	8201ac23          	sw	zero,-1992(gp) # 80000ab8 <errno>
2010620e:	c606                	sw	ra,12(sp)
20106210:	340020ef          	jal	20108550 <_read>
20106214:	57fd                	li	a5,-1
20106216:	00f51663          	bne	a0,a5,20106222 <_read_r+0x24>
2010621a:	8381a783          	lw	a5,-1992(gp) # 80000ab8 <errno>
2010621e:	c391                	beqz	a5,20106222 <_read_r+0x24>
20106220:	c01c                	sw	a5,0(s0)
20106222:	40b2                	lw	ra,12(sp)
20106224:	4422                	lw	s0,8(sp)
20106226:	0141                	add	sp,sp,16
20106228:	8082                	ret

2010622a <metal_cpu_get_mtime>:
metal_cpu_get_mtime():
2010622a:	411c                	lw	a5,0(a0)
2010622c:	479c                	lw	a5,8(a5)
2010622e:	8782                	jr	a5

20106230 <metal_cpu_timer_interrupt_controller>:
metal_cpu_timer_interrupt_controller():
20106230:	411c                	lw	a5,0(a0)
20106232:	4b9c                	lw	a5,16(a5)
20106234:	8782                	jr	a5

20106236 <metal_cpu_timer_get_interrupt_id>:
metal_cpu_timer_get_interrupt_id():
20106236:	411c                	lw	a5,0(a0)
20106238:	4bdc                	lw	a5,20(a5)
2010623a:	8782                	jr	a5

2010623c <metal_cpu_interrupt_controller>:
metal_cpu_interrupt_controller():
2010623c:	411c                	lw	a5,0(a0)
2010623e:	57dc                	lw	a5,44(a5)
20106240:	8782                	jr	a5

20106242 <metal_cpu_get>:
metal_cpu_get():
20106242:	e511                	bnez	a0,2010624e <metal_cpu_get+0xc>
20106244:	800017b7          	lui	a5,0x80001
20106248:	a847a503          	lw	a0,-1404(a5) # 80000a84 <__metal_cpu_table>
2010624c:	8082                	ret
2010624e:	4501                	li	a0,0
20106250:	8082                	ret

20106252 <metal_cpu_get_current_hartid>:
metal_cpu_get_current_hartid():
20106252:	f1402573          	csrr	a0,mhartid
20106256:	8082                	ret

20106258 <metal_interrupt_init>:
metal_interrupt_init():
20106258:	411c                	lw	a5,0(a0)
2010625a:	439c                	lw	a5,0(a5)
2010625c:	8782                	jr	a5

2010625e <metal_interrupt_register_handler>:
metal_interrupt_register_handler():
2010625e:	411c                	lw	a5,0(a0)
20106260:	4fdc                	lw	a5,28(a5)
20106262:	8782                	jr	a5

20106264 <metal_interrupt_enable>:
metal_interrupt_enable():
20106264:	411c                	lw	a5,0(a0)
20106266:	53dc                	lw	a5,36(a5)
20106268:	8782                	jr	a5

2010626a <metal_led_enable>:
metal_led_enable():
2010626a:	411c                	lw	a5,0(a0)
2010626c:	43dc                	lw	a5,4(a5)
2010626e:	8782                	jr	a5

20106270 <metal_led_on>:
metal_led_on():
20106270:	411c                	lw	a5,0(a0)
20106272:	479c                	lw	a5,8(a5)
20106274:	8782                	jr	a5

20106276 <metal_led_off>:
metal_led_off():
20106276:	411c                	lw	a5,0(a0)
20106278:	47dc                	lw	a5,12(a5)
2010627a:	8782                	jr	a5

2010627c <metal_led_get_rgb>:
metal_led_get_rgb():
2010627c:	7119                	add	sp,sp,-128
2010627e:	de86                	sw	ra,124(sp)
20106280:	dca2                	sw	s0,120(sp)
20106282:	daa6                	sw	s1,116(sp)
20106284:	d8ca                	sw	s2,112(sp)
20106286:	c91d                	beqz	a0,201062bc <metal_led_get_rgb+0x40>
20106288:	842e                	mv	s0,a1
2010628a:	c98d                	beqz	a1,201062bc <metal_led_get_rgb+0x40>
2010628c:	85aa                	mv	a1,a0
2010628e:	0068                	add	a0,sp,12
20106290:	550020ef          	jal	201087e0 <strcpy>
20106294:	85a2                	mv	a1,s0
20106296:	80000437          	lui	s0,0x80000
2010629a:	0068                	add	a0,sp,12
2010629c:	06040413          	add	s0,s0,96 # 80000060 <__metal_led_table>
201062a0:	406020ef          	jal	201086a6 <strcat>
201062a4:	00c40913          	add	s2,s0,12
201062a8:	4004                	lw	s1,0(s0)
201062aa:	006c                	add	a1,sp,12
201062ac:	409c                	lw	a5,0(s1)
201062ae:	8526                	mv	a0,s1
201062b0:	439c                	lw	a5,0(a5)
201062b2:	9782                	jalr	a5
201062b4:	e509                	bnez	a0,201062be <metal_led_get_rgb+0x42>
201062b6:	0411                	add	s0,s0,4
201062b8:	ff2418e3          	bne	s0,s2,201062a8 <metal_led_get_rgb+0x2c>
201062bc:	4481                	li	s1,0
201062be:	50f6                	lw	ra,124(sp)
201062c0:	5466                	lw	s0,120(sp)
201062c2:	5946                	lw	s2,112(sp)
201062c4:	8526                	mv	a0,s1
201062c6:	54d6                	lw	s1,116(sp)
201062c8:	6109                	add	sp,sp,128
201062ca:	8082                	ret

201062cc <__metal_driver_riscv_clint0_mtimecmp_set>:
__metal_driver_riscv_clint0_mtimecmp_set():
201062cc:	82418793          	add	a5,gp,-2012 # 80000aa4 <__metal_dt_clint_2000000>
201062d0:	40f507b3          	sub	a5,a0,a5
201062d4:	0017b793          	seqz	a5,a5
201062d8:	058e                	sll	a1,a1,0x3
201062da:	07e6                	sll	a5,a5,0x19
201062dc:	97ae                	add	a5,a5,a1
201062de:	6591                	lui	a1,0x4
201062e0:	00458713          	add	a4,a1,4 # 4004 <__heap_size+0x3804>
201062e4:	973e                	add	a4,a4,a5
201062e6:	557d                	li	a0,-1
201062e8:	c308                	sw	a0,0(a4)
201062ea:	97ae                	add	a5,a5,a1
201062ec:	c390                	sw	a2,0(a5)
201062ee:	c314                	sw	a3,0(a4)
201062f0:	4501                	li	a0,0
201062f2:	8082                	ret

201062f4 <__metal_driver_riscv_clint0_init>:
__metal_driver_riscv_clint0_init():
201062f4:	1101                	add	sp,sp,-32
201062f6:	c84a                	sw	s2,16(sp)
201062f8:	00452903          	lw	s2,4(a0)
201062fc:	ce06                	sw	ra,28(sp)
201062fe:	cc22                	sw	s0,24(sp)
20106300:	ca26                	sw	s1,20(sp)
20106302:	c64e                	sw	s3,12(sp)
20106304:	02091863          	bnez	s2,20106334 <__metal_driver_riscv_clint0_init+0x40>
20106308:	82418793          	add	a5,gp,-2012 # 80000aa4 <__metal_dt_clint_2000000>
2010630c:	842a                	mv	s0,a0
2010630e:	02f51163          	bne	a0,a5,20106330 <__metal_driver_riscv_clint0_init+0x3c>
20106312:	800004b7          	lui	s1,0x80000
20106316:	458d                	li	a1,3
20106318:	68848493          	add	s1,s1,1672 # 80000688 <__metal_dt_cpu_0_interrupt_controller>
2010631c:	4985                	li	s3,1
2010631e:	409c                	lw	a5,0(s1)
20106320:	86a2                	mv	a3,s0
20106322:	4601                	li	a2,0
20106324:	4fdc                	lw	a5,28(a5)
20106326:	8526                	mv	a0,s1
20106328:	9782                	jalr	a5
2010632a:	459d                	li	a1,7
2010632c:	01391b63          	bne	s2,s3,20106342 <__metal_driver_riscv_clint0_init+0x4e>
20106330:	4785                	li	a5,1
20106332:	c05c                	sw	a5,4(s0)
20106334:	40f2                	lw	ra,28(sp)
20106336:	4462                	lw	s0,24(sp)
20106338:	44d2                	lw	s1,20(sp)
2010633a:	4942                	lw	s2,16(sp)
2010633c:	49b2                	lw	s3,12(sp)
2010633e:	6105                	add	sp,sp,32
20106340:	8082                	ret
20106342:	4905                	li	s2,1
20106344:	bfe9                	j	2010631e <__metal_driver_riscv_clint0_init+0x2a>

20106346 <__metal_driver_riscv_clint0_vector_register>:
__metal_driver_riscv_clint0_vector_register():
20106346:	557d                	li	a0,-1
20106348:	8082                	ret

2010634a <__metal_driver_riscv_clint0_get_vector_mode>:
__metal_driver_riscv_clint0_get_vector_mode():
2010634a:	7110006f          	j	2010725a <__metal_controller_interrupt_vector_mode>

2010634e <_get_cpu_intc>:
_get_cpu_intc():
2010634e:	1141                	add	sp,sp,-16
20106350:	c606                	sw	ra,12(sp)
20106352:	f1402573          	csrr	a0,mhartid
20106356:	35f5                	jal	20106242 <metal_cpu_get>
20106358:	40b2                	lw	ra,12(sp)
2010635a:	0141                	add	sp,sp,16
2010635c:	b5c5                	j	2010623c <metal_cpu_interrupt_controller>

2010635e <__metal_driver_riscv_clint0_register>:
__metal_driver_riscv_clint0_register():
2010635e:	1101                	add	sp,sp,-32
20106360:	c62e                	sw	a1,12(sp)
20106362:	c432                	sw	a2,8(sp)
20106364:	c236                	sw	a3,4(sp)
20106366:	ce06                	sw	ra,28(sp)
20106368:	cc22                	sw	s0,24(sp)
2010636a:	ca26                	sw	s1,20(sp)
2010636c:	842a                	mv	s0,a0
2010636e:	6ed000ef          	jal	2010725a <__metal_controller_interrupt_vector_mode>
20106372:	84aa                	mv	s1,a0
20106374:	3fe9                	jal	2010634e <_get_cpu_intc>
20106376:	82418793          	add	a5,gp,-2012 # 80000aa4 <__metal_dt_clint_2000000>
2010637a:	8c1d                	sub	s0,s0,a5
2010637c:	4785                	li	a5,1
2010637e:	4692                	lw	a3,4(sp)
20106380:	4622                	lw	a2,8(sp)
20106382:	45b2                	lw	a1,12(sp)
20106384:	0097f863          	bgeu	a5,s1,20106394 <__metal_driver_riscv_clint0_register+0x36>
20106388:	40f2                	lw	ra,28(sp)
2010638a:	4462                	lw	s0,24(sp)
2010638c:	44d2                	lw	s1,20(sp)
2010638e:	557d                	li	a0,-1
20106390:	6105                	add	sp,sp,32
20106392:	8082                	ret
20106394:	00143413          	seqz	s0,s0
20106398:	0406                	sll	s0,s0,0x1
2010639a:	d47d                	beqz	s0,20106388 <__metal_driver_riscv_clint0_register+0x2a>
2010639c:	80000737          	lui	a4,0x80000
201063a0:	68870793          	add	a5,a4,1672 # 80000688 <__metal_dt_cpu_0_interrupt_controller>
201063a4:	fef512e3          	bne	a0,a5,20106388 <__metal_driver_riscv_clint0_register+0x2a>
201063a8:	480d                	li	a6,3
201063aa:	01058763          	beq	a1,a6,201063b8 <__metal_driver_riscv_clint0_register+0x5a>
201063ae:	fcf51de3          	bne	a0,a5,20106388 <__metal_driver_riscv_clint0_register+0x2a>
201063b2:	451d                	li	a0,7
201063b4:	fca59ae3          	bne	a1,a0,20106388 <__metal_driver_riscv_clint0_register+0x2a>
201063b8:	439c                	lw	a5,0(a5)
201063ba:	4462                	lw	s0,24(sp)
201063bc:	40f2                	lw	ra,28(sp)
201063be:	44d2                	lw	s1,20(sp)
201063c0:	4fdc                	lw	a5,28(a5)
201063c2:	68870513          	add	a0,a4,1672
201063c6:	6105                	add	sp,sp,32
201063c8:	8782                	jr	a5

201063ca <__metal_driver_riscv_clint0_set_vector_mode>:
__metal_driver_riscv_clint0_set_vector_mode():
201063ca:	1101                	add	sp,sp,-32
201063cc:	ce06                	sw	ra,28(sp)
201063ce:	c62e                	sw	a1,12(sp)
201063d0:	3fbd                	jal	2010634e <_get_cpu_intc>
201063d2:	c911                	beqz	a0,201063e6 <__metal_driver_riscv_clint0_set_vector_mode+0x1c>
201063d4:	45b2                	lw	a1,12(sp)
201063d6:	4705                	li	a4,1
201063d8:	00b76763          	bltu	a4,a1,201063e6 <__metal_driver_riscv_clint0_set_vector_mode+0x1c>
201063dc:	411c                	lw	a5,0(a0)
201063de:	40f2                	lw	ra,28(sp)
201063e0:	43dc                	lw	a5,4(a5)
201063e2:	6105                	add	sp,sp,32
201063e4:	8782                	jr	a5
201063e6:	40f2                	lw	ra,28(sp)
201063e8:	557d                	li	a0,-1
201063ea:	6105                	add	sp,sp,32
201063ec:	8082                	ret

201063ee <__metal_driver_riscv_clint0_enable>:
__metal_driver_riscv_clint0_enable():
201063ee:	1101                	add	sp,sp,-32
201063f0:	ce06                	sw	ra,28(sp)
201063f2:	cc22                	sw	s0,24(sp)
201063f4:	c62e                	sw	a1,12(sp)
201063f6:	c981                	beqz	a1,20106406 <__metal_driver_riscv_clint0_enable+0x18>
201063f8:	842a                	mv	s0,a0
201063fa:	3f91                	jal	2010634e <_get_cpu_intc>
201063fc:	82418793          	add	a5,gp,-2012 # 80000aa4 <__metal_dt_clint_2000000>
20106400:	45b2                	lw	a1,12(sp)
20106402:	00f40763          	beq	s0,a5,20106410 <__metal_driver_riscv_clint0_enable+0x22>
20106406:	40f2                	lw	ra,28(sp)
20106408:	4462                	lw	s0,24(sp)
2010640a:	557d                	li	a0,-1
2010640c:	6105                	add	sp,sp,32
2010640e:	8082                	ret
20106410:	80000737          	lui	a4,0x80000
20106414:	68870793          	add	a5,a4,1672 # 80000688 <__metal_dt_cpu_0_interrupt_controller>
20106418:	fef517e3          	bne	a0,a5,20106406 <__metal_driver_riscv_clint0_enable+0x18>
2010641c:	468d                	li	a3,3
2010641e:	00d58763          	beq	a1,a3,2010642c <__metal_driver_riscv_clint0_enable+0x3e>
20106422:	fef512e3          	bne	a0,a5,20106406 <__metal_driver_riscv_clint0_enable+0x18>
20106426:	469d                	li	a3,7
20106428:	fcd59fe3          	bne	a1,a3,20106406 <__metal_driver_riscv_clint0_enable+0x18>
2010642c:	439c                	lw	a5,0(a5)
2010642e:	4462                	lw	s0,24(sp)
20106430:	40f2                	lw	ra,28(sp)
20106432:	53dc                	lw	a5,36(a5)
20106434:	68870513          	add	a0,a4,1672
20106438:	6105                	add	sp,sp,32
2010643a:	8782                	jr	a5

2010643c <__metal_driver_riscv_clint0_disable>:
__metal_driver_riscv_clint0_disable():
2010643c:	1101                	add	sp,sp,-32
2010643e:	ce06                	sw	ra,28(sp)
20106440:	cc22                	sw	s0,24(sp)
20106442:	c62e                	sw	a1,12(sp)
20106444:	c981                	beqz	a1,20106454 <__metal_driver_riscv_clint0_disable+0x18>
20106446:	842a                	mv	s0,a0
20106448:	3719                	jal	2010634e <_get_cpu_intc>
2010644a:	82418793          	add	a5,gp,-2012 # 80000aa4 <__metal_dt_clint_2000000>
2010644e:	45b2                	lw	a1,12(sp)
20106450:	00f40763          	beq	s0,a5,2010645e <__metal_driver_riscv_clint0_disable+0x22>
20106454:	40f2                	lw	ra,28(sp)
20106456:	4462                	lw	s0,24(sp)
20106458:	557d                	li	a0,-1
2010645a:	6105                	add	sp,sp,32
2010645c:	8082                	ret
2010645e:	80000737          	lui	a4,0x80000
20106462:	68870793          	add	a5,a4,1672 # 80000688 <__metal_dt_cpu_0_interrupt_controller>
20106466:	fef517e3          	bne	a0,a5,20106454 <__metal_driver_riscv_clint0_disable+0x18>
2010646a:	468d                	li	a3,3
2010646c:	00d58763          	beq	a1,a3,2010647a <__metal_driver_riscv_clint0_disable+0x3e>
20106470:	fef512e3          	bne	a0,a5,20106454 <__metal_driver_riscv_clint0_disable+0x18>
20106474:	469d                	li	a3,7
20106476:	fcd59fe3          	bne	a1,a3,20106454 <__metal_driver_riscv_clint0_disable+0x18>
2010647a:	439c                	lw	a5,0(a5)
2010647c:	4462                	lw	s0,24(sp)
2010647e:	40f2                	lw	ra,28(sp)
20106480:	579c                	lw	a5,40(a5)
20106482:	68870513          	add	a0,a4,1672
20106486:	6105                	add	sp,sp,32
20106488:	8782                	jr	a5

2010648a <__metal_clint0_mtime_get>:
__metal_clint0_mtime_get():
2010648a:	82418793          	add	a5,gp,-2012 # 80000aa4 <__metal_dt_clint_2000000>
2010648e:	8d1d                	sub	a0,a0,a5
20106490:	00153513          	seqz	a0,a0
20106494:	67b1                	lui	a5,0xc
20106496:	0566                	sll	a0,a0,0x19
20106498:	ffc78713          	add	a4,a5,-4 # bffc <__heap_size+0xb7fc>
2010649c:	17e1                	add	a5,a5,-8
2010649e:	972a                	add	a4,a4,a0
201064a0:	97aa                	add	a5,a5,a0
201064a2:	4314                	lw	a3,0(a4)
201064a4:	4388                	lw	a0,0(a5)
201064a6:	430c                	lw	a1,0(a4)
201064a8:	fed59de3          	bne	a1,a3,201064a2 <__metal_clint0_mtime_get+0x18>
201064ac:	8082                	ret

201064ae <__metal_driver_riscv_clint0_command_request>:
__metal_driver_riscv_clint0_command_request():
201064ae:	82418793          	add	a5,gp,-2012 # 80000aa4 <__metal_dt_clint_2000000>
201064b2:	1141                	add	sp,sp,-16
201064b4:	40f507b3          	sub	a5,a0,a5
201064b8:	c422                	sw	s0,8(sp)
201064ba:	0017b793          	seqz	a5,a5
201064be:	c606                	sw	ra,12(sp)
201064c0:	470d                	li	a4,3
201064c2:	8432                	mv	s0,a2
201064c4:	07e6                	sll	a5,a5,0x19
201064c6:	04e58863          	beq	a1,a4,20106516 <__metal_driver_riscv_clint0_command_request+0x68>
201064ca:	00b74e63          	blt	a4,a1,201064e6 <__metal_driver_riscv_clint0_command_request+0x38>
201064ce:	4705                	li	a4,1
201064d0:	02e58463          	beq	a1,a4,201064f8 <__metal_driver_riscv_clint0_command_request+0x4a>
201064d4:	4709                	li	a4,2
201064d6:	02e58863          	beq	a1,a4,20106506 <__metal_driver_riscv_clint0_command_request+0x58>
201064da:	577d                	li	a4,-1
201064dc:	40b2                	lw	ra,12(sp)
201064de:	4422                	lw	s0,8(sp)
201064e0:	853a                	mv	a0,a4
201064e2:	0141                	add	sp,sp,16
201064e4:	8082                	ret
201064e6:	4711                	li	a4,4
201064e8:	fee599e3          	bne	a1,a4,201064da <__metal_driver_riscv_clint0_command_request+0x2c>
201064ec:	ca19                	beqz	a2,20106502 <__metal_driver_riscv_clint0_command_request+0x54>
201064ee:	4218                	lw	a4,0(a2)
201064f0:	070a                	sll	a4,a4,0x2
201064f2:	97ba                	add	a5,a5,a4
201064f4:	4398                	lw	a4,0(a5)
201064f6:	b7dd                	j	201064dc <__metal_driver_riscv_clint0_command_request+0x2e>
201064f8:	577d                	li	a4,-1
201064fa:	d26d                	beqz	a2,201064dc <__metal_driver_riscv_clint0_command_request+0x2e>
201064fc:	3779                	jal	2010648a <__metal_clint0_mtime_get>
201064fe:	c008                	sw	a0,0(s0)
20106500:	c04c                	sw	a1,4(s0)
20106502:	4701                	li	a4,0
20106504:	bfe1                	j	201064dc <__metal_driver_riscv_clint0_command_request+0x2e>
20106506:	577d                	li	a4,-1
20106508:	da71                	beqz	a2,201064dc <__metal_driver_riscv_clint0_command_request+0x2e>
2010650a:	4218                	lw	a4,0(a2)
2010650c:	070a                	sll	a4,a4,0x2
2010650e:	97ba                	add	a5,a5,a4
20106510:	0007a023          	sw	zero,0(a5)
20106514:	b7fd                	j	20106502 <__metal_driver_riscv_clint0_command_request+0x54>
20106516:	577d                	li	a4,-1
20106518:	d271                	beqz	a2,201064dc <__metal_driver_riscv_clint0_command_request+0x2e>
2010651a:	4218                	lw	a4,0(a2)
2010651c:	070a                	sll	a4,a4,0x2
2010651e:	97ba                	add	a5,a5,a4
20106520:	4705                	li	a4,1
20106522:	c398                	sw	a4,0(a5)
20106524:	0480000f          	fence	o,i
20106528:	439c                	lw	a5,0(a5)
2010652a:	bfe1                	j	20106502 <__metal_driver_riscv_clint0_command_request+0x54>

2010652c <__metal_driver_riscv_clint0_clear_interrupt>:
__metal_driver_riscv_clint0_clear_interrupt():
2010652c:	1101                	add	sp,sp,-32
2010652e:	ce06                	sw	ra,28(sp)
20106530:	cc22                	sw	s0,24(sp)
20106532:	842a                	mv	s0,a0
20106534:	3b39                	jal	20106252 <metal_cpu_get_current_hartid>
20106536:	c62a                	sw	a0,12(sp)
20106538:	0070                	add	a2,sp,12
2010653a:	8522                	mv	a0,s0
2010653c:	4589                	li	a1,2
2010653e:	3f85                	jal	201064ae <__metal_driver_riscv_clint0_command_request>
20106540:	40f2                	lw	ra,28(sp)
20106542:	4462                	lw	s0,24(sp)
20106544:	6105                	add	sp,sp,32
20106546:	8082                	ret

20106548 <__metal_driver_riscv_clint0_set_interrupt>:
__metal_driver_riscv_clint0_set_interrupt():
20106548:	1101                	add	sp,sp,-32
2010654a:	ce06                	sw	ra,28(sp)
2010654c:	cc22                	sw	s0,24(sp)
2010654e:	842a                	mv	s0,a0
20106550:	3309                	jal	20106252 <metal_cpu_get_current_hartid>
20106552:	c62a                	sw	a0,12(sp)
20106554:	0070                	add	a2,sp,12
20106556:	8522                	mv	a0,s0
20106558:	458d                	li	a1,3
2010655a:	3f91                	jal	201064ae <__metal_driver_riscv_clint0_command_request>
2010655c:	40f2                	lw	ra,28(sp)
2010655e:	4462                	lw	s0,24(sp)
20106560:	6105                	add	sp,sp,32
20106562:	8082                	ret

20106564 <__metal_default_sw_handler>:
__metal_default_sw_handler():
20106564:	85aa                	mv	a1,a0
20106566:	f14027f3          	csrr	a5,mhartid
2010656a:	80001737          	lui	a4,0x80001
2010656e:	a8470713          	add	a4,a4,-1404 # 80000a84 <__metal_cpu_table>
20106572:	078a                	sll	a5,a5,0x2
20106574:	97ba                	add	a5,a5,a4
20106576:	4388                	lw	a0,0(a5)
20106578:	342027f3          	csrr	a5,mcause
2010657c:	c505                	beqz	a0,201065a4 <__metal_default_sw_handler+0x40>
2010657e:	3ff7f793          	and	a5,a5,1023
20106582:	81c18713          	add	a4,gp,-2020 # 80000a9c <__metal_dt_cpu_0>
20106586:	0e878793          	add	a5,a5,232
2010658a:	00e51a63          	bne	a0,a4,2010659e <__metal_default_sw_handler+0x3a>
2010658e:	80000737          	lui	a4,0x80000
20106592:	078a                	sll	a5,a5,0x2
20106594:	68870713          	add	a4,a4,1672 # 80000688 <__metal_dt_cpu_0_interrupt_controller>
20106598:	97ba                	add	a5,a5,a4
2010659a:	439c                	lw	a5,0(a5)
2010659c:	8782                	jr	a5
2010659e:	078a                	sll	a5,a5,0x2
201065a0:	439c                	lw	a5,0(a5)
201065a2:	9002                	ebreak
201065a4:	8082                	ret

201065a6 <__metal_default_beu_handler>:
__metal_default_beu_handler():
201065a6:	8082                	ret
	...

20106600 <__metal_exception_handler>:
__metal_exception_handler():
20106600:	7139                	add	sp,sp,-64
20106602:	de06                	sw	ra,60(sp)
20106604:	dc16                	sw	t0,56(sp)
20106606:	da1a                	sw	t1,52(sp)
20106608:	d81e                	sw	t2,48(sp)
2010660a:	d62a                	sw	a0,44(sp)
2010660c:	d42e                	sw	a1,40(sp)
2010660e:	d232                	sw	a2,36(sp)
20106610:	d036                	sw	a3,32(sp)
20106612:	ce3a                	sw	a4,28(sp)
20106614:	cc3e                	sw	a5,24(sp)
20106616:	ca42                	sw	a6,20(sp)
20106618:	c846                	sw	a7,16(sp)
2010661a:	c672                	sw	t3,12(sp)
2010661c:	c476                	sw	t4,8(sp)
2010661e:	c27a                	sw	t5,4(sp)
20106620:	c07e                	sw	t6,0(sp)
20106622:	f14027f3          	csrr	a5,mhartid
20106626:	80001737          	lui	a4,0x80001
2010662a:	a8470713          	add	a4,a4,-1404 # 80000a84 <__metal_cpu_table>
2010662e:	078a                	sll	a5,a5,0x2
20106630:	97ba                	add	a5,a5,a4
20106632:	4394                	lw	a3,0(a5)
20106634:	342025f3          	csrr	a1,mcause
20106638:	341027f3          	csrr	a5,mepc
2010663c:	343027f3          	csrr	a5,mtval
20106640:	30502773          	csrr	a4,mtvec
20106644:	ca8d                	beqz	a3,20106676 <__metal_exception_handler+0x76>
20106646:	81c18613          	add	a2,gp,-2020 # 80000a9c <__metal_dt_cpu_0>
2010664a:	4781                	li	a5,0
2010664c:	00c69663          	bne	a3,a2,20106658 <__metal_exception_handler+0x58>
20106650:	800007b7          	lui	a5,0x80000
20106654:	68878793          	add	a5,a5,1672 # 80000688 <__metal_dt_cpu_0_interrupt_controller>
20106658:	3ff5f513          	and	a0,a1,1023
2010665c:	0605d863          	bgez	a1,201066cc <__metal_exception_handler+0xcc>
20106660:	08000693          	li	a3,128
20106664:	02d51c63          	bne	a0,a3,2010669c <__metal_exception_handler+0x9c>
20106668:	3907a703          	lw	a4,912(a5)
2010666c:	3987a583          	lw	a1,920(a5)
20106670:	08000513          	li	a0,128
20106674:	9702                	jalr	a4
20106676:	50f2                	lw	ra,60(sp)
20106678:	52e2                	lw	t0,56(sp)
2010667a:	5352                	lw	t1,52(sp)
2010667c:	53c2                	lw	t2,48(sp)
2010667e:	5532                	lw	a0,44(sp)
20106680:	55a2                	lw	a1,40(sp)
20106682:	5612                	lw	a2,36(sp)
20106684:	5682                	lw	a3,32(sp)
20106686:	4772                	lw	a4,28(sp)
20106688:	47e2                	lw	a5,24(sp)
2010668a:	4852                	lw	a6,20(sp)
2010668c:	48c2                	lw	a7,16(sp)
2010668e:	4e32                	lw	t3,12(sp)
20106690:	4ea2                	lw	t4,8(sp)
20106692:	4f12                	lw	t5,4(sp)
20106694:	4f82                	lw	t6,0(sp)
20106696:	6121                	add	sp,sp,64
20106698:	30200073          	mret
2010669c:	46ad                	li	a3,11
2010669e:	00a6f563          	bgeu	a3,a0,201066a8 <__metal_exception_handler+0xa8>
201066a2:	03f77713          	and	a4,a4,63
201066a6:	eb11                	bnez	a4,201066ba <__metal_exception_handler+0xba>
201066a8:	4761                	li	a4,24
201066aa:	02e50733          	mul	a4,a0,a4
201066ae:	97ba                	add	a5,a5,a4
201066b0:	0907a703          	lw	a4,144(a5)
201066b4:	0987a583          	lw	a1,152(a5)
201066b8:	bf75                	j	20106674 <__metal_exception_handler+0x74>
201066ba:	4689                	li	a3,2
201066bc:	fad71de3          	bne	a4,a3,20106676 <__metal_exception_handler+0x76>
201066c0:	30702773          	csrr	a4,mtvt
201066c4:	4318                	lw	a4,0(a4)
201066c6:	0dc7a583          	lw	a1,220(a5)
201066ca:	b76d                	j	20106674 <__metal_exception_handler+0x74>
201066cc:	0e850713          	add	a4,a0,232
201066d0:	070a                	sll	a4,a4,0x2
201066d2:	97ba                	add	a5,a5,a4
201066d4:	439c                	lw	a5,0(a5)
201066d6:	85aa                	mv	a1,a0
201066d8:	8536                	mv	a0,a3
201066da:	9782                	jalr	a5
201066dc:	bf69                	j	20106676 <__metal_exception_handler+0x76>
	...

201066fe <__metal_driver_riscv_cpu_controller_command_request>:
__metal_driver_riscv_cpu_controller_command_request():
201066fe:	4501                	li	a0,0
20106700:	8082                	ret

20106702 <__metal_driver_cpu_mcycle_get>:
__metal_driver_cpu_mcycle_get():
20106702:	b80025f3          	csrr	a1,mcycleh
20106706:	b0002573          	csrr	a0,mcycle
2010670a:	b80027f3          	csrr	a5,mcycleh
2010670e:	fef59ae3          	bne	a1,a5,20106702 <__metal_driver_cpu_mcycle_get>
20106712:	8082                	ret

20106714 <__metal_driver_cpu_timebase_get>:
__metal_driver_cpu_timebase_get():
20106714:	87aa                	mv	a5,a0
20106716:	cd09                	beqz	a0,20106730 <__metal_driver_cpu_timebase_get+0x1c>
20106718:	81c18713          	add	a4,gp,-2020 # 80000a9c <__metal_dt_cpu_0>
2010671c:	4501                	li	a0,0
2010671e:	00e79663          	bne	a5,a4,2010672a <__metal_driver_cpu_timebase_get+0x16>
20106722:	000f4537          	lui	a0,0xf4
20106726:	24050513          	add	a0,a0,576 # f4240 <__heap_size+0xf3a40>
2010672a:	41f55593          	sra	a1,a0,0x1f
2010672e:	8082                	ret
20106730:	4501                	li	a0,0
20106732:	4581                	li	a1,0
20106734:	8082                	ret

20106736 <__metal_driver_cpu_mtime_get>:
__metal_driver_cpu_mtime_get():
20106736:	1101                	add	sp,sp,-32
20106738:	4781                	li	a5,0
2010673a:	4801                	li	a6,0
2010673c:	c43e                	sw	a5,8(sp)
2010673e:	ce06                	sw	ra,28(sp)
20106740:	c642                	sw	a6,12(sp)
20106742:	81c18793          	add	a5,gp,-2020 # 80000a9c <__metal_dt_cpu_0>
20106746:	00a79c63          	bne	a5,a0,2010675e <__metal_driver_cpu_mtime_get+0x28>
2010674a:	800007b7          	lui	a5,0x80000
2010674e:	7c47a503          	lw	a0,1988(a5) # 800007c4 <__metal_dt_cpu_0_interrupt_controller+0x13c>
20106752:	c511                	beqz	a0,2010675e <__metal_driver_cpu_mtime_get+0x28>
20106754:	411c                	lw	a5,0(a0)
20106756:	0030                	add	a2,sp,8
20106758:	4585                	li	a1,1
2010675a:	47fc                	lw	a5,76(a5)
2010675c:	9782                	jalr	a5
2010675e:	40f2                	lw	ra,28(sp)
20106760:	4522                	lw	a0,8(sp)
20106762:	45b2                	lw	a1,12(sp)
20106764:	6105                	add	sp,sp,32
20106766:	8082                	ret

20106768 <__metal_driver_cpu_timer_controller_interrupt>:
__metal_driver_cpu_timer_controller_interrupt():
20106768:	82418513          	add	a0,gp,-2012 # 80000aa4 <__metal_dt_clint_2000000>
2010676c:	8082                	ret

2010676e <__metal_driver_cpu_get_timer_interrupt_id>:
__metal_driver_cpu_get_timer_interrupt_id():
2010676e:	451d                	li	a0,7
20106770:	8082                	ret

20106772 <__metal_driver_cpu_get_sw_interrupt_id>:
__metal_driver_cpu_get_sw_interrupt_id():
20106772:	450d                	li	a0,3
20106774:	8082                	ret

20106776 <__metal_driver_cpu_set_sw_ipi>:
__metal_driver_cpu_set_sw_ipi():
20106776:	1101                	add	sp,sp,-32
20106778:	ce06                	sw	ra,28(sp)
2010677a:	c62e                	sw	a1,12(sp)
2010677c:	81c18793          	add	a5,gp,-2020 # 80000a9c <__metal_dt_cpu_0>
20106780:	02a79163          	bne	a5,a0,201067a2 <__metal_driver_cpu_set_sw_ipi+0x2c>
20106784:	800007b7          	lui	a5,0x80000
20106788:	7647a783          	lw	a5,1892(a5) # 80000764 <__metal_dt_cpu_0_interrupt_controller+0xdc>
2010678c:	557d                	li	a0,-1
2010678e:	c799                	beqz	a5,2010679c <__metal_driver_cpu_set_sw_ipi+0x26>
20106790:	4398                	lw	a4,0(a5)
20106792:	0070                	add	a2,sp,12
20106794:	458d                	li	a1,3
20106796:	4778                	lw	a4,76(a4)
20106798:	853e                	mv	a0,a5
2010679a:	9702                	jalr	a4
2010679c:	40f2                	lw	ra,28(sp)
2010679e:	6105                	add	sp,sp,32
201067a0:	8082                	ret
201067a2:	557d                	li	a0,-1
201067a4:	bfe5                	j	2010679c <__metal_driver_cpu_set_sw_ipi+0x26>

201067a6 <__metal_driver_cpu_clear_sw_ipi>:
__metal_driver_cpu_clear_sw_ipi():
201067a6:	1101                	add	sp,sp,-32
201067a8:	ce06                	sw	ra,28(sp)
201067aa:	c62e                	sw	a1,12(sp)
201067ac:	81c18793          	add	a5,gp,-2020 # 80000a9c <__metal_dt_cpu_0>
201067b0:	02a79163          	bne	a5,a0,201067d2 <__metal_driver_cpu_clear_sw_ipi+0x2c>
201067b4:	800007b7          	lui	a5,0x80000
201067b8:	7647a783          	lw	a5,1892(a5) # 80000764 <__metal_dt_cpu_0_interrupt_controller+0xdc>
201067bc:	557d                	li	a0,-1
201067be:	c799                	beqz	a5,201067cc <__metal_driver_cpu_clear_sw_ipi+0x26>
201067c0:	4398                	lw	a4,0(a5)
201067c2:	0070                	add	a2,sp,12
201067c4:	4589                	li	a1,2
201067c6:	4778                	lw	a4,76(a4)
201067c8:	853e                	mv	a0,a5
201067ca:	9702                	jalr	a4
201067cc:	40f2                	lw	ra,28(sp)
201067ce:	6105                	add	sp,sp,32
201067d0:	8082                	ret
201067d2:	557d                	li	a0,-1
201067d4:	bfe5                	j	201067cc <__metal_driver_cpu_clear_sw_ipi+0x26>

201067d6 <__metal_driver_cpu_get_msip>:
__metal_driver_cpu_get_msip():
201067d6:	1101                	add	sp,sp,-32
201067d8:	ce06                	sw	ra,28(sp)
201067da:	c62e                	sw	a1,12(sp)
201067dc:	81c18793          	add	a5,gp,-2020 # 80000a9c <__metal_dt_cpu_0>
201067e0:	02a79163          	bne	a5,a0,20106802 <__metal_driver_cpu_get_msip+0x2c>
201067e4:	800007b7          	lui	a5,0x80000
201067e8:	7647a783          	lw	a5,1892(a5) # 80000764 <__metal_dt_cpu_0_interrupt_controller+0xdc>
201067ec:	4501                	li	a0,0
201067ee:	c799                	beqz	a5,201067fc <__metal_driver_cpu_get_msip+0x26>
201067f0:	4398                	lw	a4,0(a5)
201067f2:	0070                	add	a2,sp,12
201067f4:	4591                	li	a1,4
201067f6:	4778                	lw	a4,76(a4)
201067f8:	853e                	mv	a0,a5
201067fa:	9702                	jalr	a4
201067fc:	40f2                	lw	ra,28(sp)
201067fe:	6105                	add	sp,sp,32
20106800:	8082                	ret
20106802:	4501                	li	a0,0
20106804:	bfe5                	j	201067fc <__metal_driver_cpu_get_msip+0x26>

20106806 <__metal_driver_cpu_controller_interrupt>:
__metal_driver_cpu_controller_interrupt():
20106806:	81c18793          	add	a5,gp,-2020 # 80000a9c <__metal_dt_cpu_0>
2010680a:	00a79763          	bne	a5,a0,20106818 <__metal_driver_cpu_controller_interrupt+0x12>
2010680e:	80000537          	lui	a0,0x80000
20106812:	68850513          	add	a0,a0,1672 # 80000688 <__metal_dt_cpu_0_interrupt_controller>
20106816:	8082                	ret
20106818:	4501                	li	a0,0
2010681a:	8082                	ret

2010681c <__metal_driver_cpu_get_instruction_length>:
__metal_driver_cpu_get_instruction_length():
2010681c:	0005d783          	lhu	a5,0(a1)
20106820:	470d                	li	a4,3
20106822:	4509                	li	a0,2
20106824:	8b8d                	and	a5,a5,3
20106826:	00e79363          	bne	a5,a4,2010682c <__metal_driver_cpu_get_instruction_length+0x10>
2010682a:	4511                	li	a0,4
2010682c:	8082                	ret

2010682e <__metal_driver_cpu_get_exception_pc>:
__metal_driver_cpu_get_exception_pc():
2010682e:	34102573          	csrr	a0,mepc
20106832:	8082                	ret

20106834 <__metal_driver_cpu_set_exception_pc>:
__metal_driver_cpu_set_exception_pc():
20106834:	34159073          	csrw	mepc,a1
20106838:	4501                	li	a0,0
2010683a:	8082                	ret

2010683c <__metal_driver_cpu_get_buserror>:
__metal_driver_cpu_get_buserror():
2010683c:	4501                	li	a0,0
2010683e:	8082                	ret

20106840 <__metal_default_exception_handler>:
__metal_default_exception_handler():
20106840:	1141                	add	sp,sp,-16
20106842:	06400513          	li	a0,100
20106846:	c606                	sw	ra,12(sp)
20106848:	3a5010ef          	jal	201083ec <metal_shutdown>

2010684c <__metal_default_interrupt_handler>:
__metal_default_interrupt_handler():
2010684c:	1141                	add	sp,sp,-16
2010684e:	0c800513          	li	a0,200
20106852:	c606                	sw	ra,12(sp)
20106854:	399010ef          	jal	201083ec <metal_shutdown>

20106858 <__metal_driver_cpu_mtimecmp_set>:
__metal_driver_cpu_mtimecmp_set():
20106858:	81c18793          	add	a5,gp,-2020 # 80000a9c <__metal_dt_cpu_0>
2010685c:	86b2                	mv	a3,a2
2010685e:	862e                	mv	a2,a1
20106860:	00a79b63          	bne	a5,a0,20106876 <__metal_driver_cpu_mtimecmp_set+0x1e>
20106864:	800007b7          	lui	a5,0x80000
20106868:	7c47a503          	lw	a0,1988(a5) # 800007c4 <__metal_dt_cpu_0_interrupt_controller+0x13c>
2010686c:	c509                	beqz	a0,20106876 <__metal_driver_cpu_mtimecmp_set+0x1e>
2010686e:	411c                	lw	a5,0(a0)
20106870:	4581                	li	a1,0
20106872:	4bbc                	lw	a5,80(a5)
20106874:	8782                	jr	a5
20106876:	557d                	li	a0,-1
20106878:	8082                	ret

2010687a <__metal_driver_riscv_cpu_controller_interrupt_init>:
__metal_driver_riscv_cpu_controller_interrupt_init():
2010687a:	415c                	lw	a5,4(a0)
2010687c:	efa9                	bnez	a5,201068d6 <__metal_driver_riscv_cpu_controller_interrupt_init+0x5c>
2010687e:	09050793          	add	a5,a0,144
20106882:	39050713          	add	a4,a0,912
20106886:	0007a023          	sw	zero,0(a5)
2010688a:	0007a223          	sw	zero,4(a5)
2010688e:	0007a423          	sw	zero,8(a5)
20106892:	07e1                	add	a5,a5,24
20106894:	fee799e3          	bne	a5,a4,20106886 <__metal_driver_riscv_cpu_controller_interrupt_init+0xc>
20106898:	20107737          	lui	a4,0x20107
2010689c:	3a050793          	add	a5,a0,928
201068a0:	3d050693          	add	a3,a0,976
201068a4:	84070713          	add	a4,a4,-1984 # 20106840 <__metal_default_exception_handler>
201068a8:	c398                	sw	a4,0(a5)
201068aa:	0791                	add	a5,a5,4
201068ac:	fed79ee3          	bne	a5,a3,201068a8 <__metal_driver_riscv_cpu_controller_interrupt_init+0x2e>
201068b0:	30502773          	csrr	a4,mtvec
201068b4:	201007b7          	lui	a5,0x20100
201068b8:	13478793          	add	a5,a5,308 # 20100134 <early_trap_vector>
201068bc:	00f71b63          	bne	a4,a5,201068d2 <__metal_driver_riscv_cpu_controller_interrupt_init+0x58>
201068c0:	305027f3          	csrr	a5,mtvec
201068c4:	201067b7          	lui	a5,0x20106
201068c8:	60078793          	add	a5,a5,1536 # 20106600 <__metal_exception_handler>
201068cc:	9bf1                	and	a5,a5,-4
201068ce:	30579073          	csrw	mtvec,a5
201068d2:	4785                	li	a5,1
201068d4:	c15c                	sw	a5,4(a0)
201068d6:	8082                	ret

201068d8 <__metal_driver_cpu_sw_controller_interrupt>:
__metal_driver_cpu_sw_controller_interrupt():
201068d8:	82418513          	add	a0,gp,-2012 # 80000aa4 <__metal_dt_clint_2000000>
201068dc:	8082                	ret

201068de <__metal_driver_riscv_cpu_controller_set_vector_mode>:
__metal_driver_riscv_cpu_controller_set_vector_mode():
201068de:	ed81                	bnez	a1,201068f6 <__metal_driver_riscv_cpu_controller_set_vector_mode+0x18>
201068e0:	305027f3          	csrr	a5,mtvec
201068e4:	201067b7          	lui	a5,0x20106
201068e8:	60078793          	add	a5,a5,1536 # 20106600 <__metal_exception_handler>
201068ec:	9bf1                	and	a5,a5,-4
201068ee:	30579073          	csrw	mtvec,a5
201068f2:	4501                	li	a0,0
201068f4:	8082                	ret
201068f6:	4785                	li	a5,1
201068f8:	557d                	li	a0,-1
201068fa:	fef59de3          	bne	a1,a5,201068f4 <__metal_driver_riscv_cpu_controller_set_vector_mode+0x16>
201068fe:	305027f3          	csrr	a5,mtvec
20106902:	201087b7          	lui	a5,0x20108
20106906:	40078793          	add	a5,a5,1024 # 20108400 <__metal_vector_table>
2010690a:	0017e793          	or	a5,a5,1
2010690e:	b7c5                	j	201068ee <__metal_driver_riscv_cpu_controller_set_vector_mode+0x10>

20106910 <__metal_driver_cpu_get>:
__metal_driver_cpu_get():
20106910:	00a04a63          	bgtz	a0,20106924 <__metal_driver_cpu_get+0x14>
20106914:	800017b7          	lui	a5,0x80001
20106918:	a8478793          	add	a5,a5,-1404 # 80000a84 <__metal_cpu_table>
2010691c:	050a                	sll	a0,a0,0x2
2010691e:	953e                	add	a0,a0,a5
20106920:	4108                	lw	a0,0(a0)
20106922:	8082                	ret
20106924:	4501                	li	a0,0
20106926:	8082                	ret

20106928 <__metal_default_timer_handler>:
__metal_default_timer_handler():
20106928:	1141                	add	sp,sp,-16
2010692a:	c606                	sw	ra,12(sp)
2010692c:	c422                	sw	s0,8(sp)
2010692e:	f1402573          	csrr	a0,mhartid
20106932:	3ff9                	jal	20106910 <__metal_driver_cpu_get>
20106934:	842a                	mv	s0,a0
20106936:	3501                	jal	20106736 <__metal_driver_cpu_mtime_get>
20106938:	87ae                	mv	a5,a1
2010693a:	00a50593          	add	a1,a0,10
2010693e:	00a5b633          	sltu	a2,a1,a0
20106942:	8522                	mv	a0,s0
20106944:	4422                	lw	s0,8(sp)
20106946:	40b2                	lw	ra,12(sp)
20106948:	963e                	add	a2,a2,a5
2010694a:	0141                	add	sp,sp,16
2010694c:	b731                	j	20106858 <__metal_driver_cpu_mtimecmp_set>

2010694e <__metal_myhart_id>:
__metal_myhart_id():
2010694e:	f1402573          	csrr	a0,mhartid
20106952:	8082                	ret

20106954 <metal_interrupt_vector_handler>:
metal_interrupt_vector_handler():
20106954:	7139                	add	sp,sp,-64
20106956:	d62a                	sw	a0,44(sp)
20106958:	12c00513          	li	a0,300
2010695c:	de06                	sw	ra,60(sp)
2010695e:	dc16                	sw	t0,56(sp)
20106960:	da1a                	sw	t1,52(sp)
20106962:	d81e                	sw	t2,48(sp)
20106964:	d42e                	sw	a1,40(sp)
20106966:	d232                	sw	a2,36(sp)
20106968:	d036                	sw	a3,32(sp)
2010696a:	ce3a                	sw	a4,28(sp)
2010696c:	cc3e                	sw	a5,24(sp)
2010696e:	ca42                	sw	a6,20(sp)
20106970:	c846                	sw	a7,16(sp)
20106972:	c672                	sw	t3,12(sp)
20106974:	c476                	sw	t4,8(sp)
20106976:	c27a                	sw	t5,4(sp)
20106978:	c07e                	sw	t6,0(sp)
2010697a:	273010ef          	jal	201083ec <metal_shutdown>

2010697e <metal_software_interrupt_vector_handler>:
metal_software_interrupt_vector_handler():
2010697e:	7139                	add	sp,sp,-64
20106980:	de06                	sw	ra,60(sp)
20106982:	dc16                	sw	t0,56(sp)
20106984:	da1a                	sw	t1,52(sp)
20106986:	d81e                	sw	t2,48(sp)
20106988:	d62a                	sw	a0,44(sp)
2010698a:	d42e                	sw	a1,40(sp)
2010698c:	d232                	sw	a2,36(sp)
2010698e:	d036                	sw	a3,32(sp)
20106990:	ce3a                	sw	a4,28(sp)
20106992:	cc3e                	sw	a5,24(sp)
20106994:	ca42                	sw	a6,20(sp)
20106996:	c846                	sw	a7,16(sp)
20106998:	c672                	sw	t3,12(sp)
2010699a:	c476                	sw	t4,8(sp)
2010699c:	c27a                	sw	t5,4(sp)
2010699e:	c07e                	sw	t6,0(sp)
201069a0:	f14027f3          	csrr	a5,mhartid
201069a4:	80001737          	lui	a4,0x80001
201069a8:	a8470713          	add	a4,a4,-1404 # 80000a84 <__metal_cpu_table>
201069ac:	078a                	sll	a5,a5,0x2
201069ae:	97ba                	add	a5,a5,a4
201069b0:	4398                	lw	a4,0(a5)
201069b2:	cf19                	beqz	a4,201069d0 <metal_software_interrupt_vector_handler+0x52>
201069b4:	81c18793          	add	a5,gp,-2020 # 80000a9c <__metal_dt_cpu_0>
201069b8:	02f71f63          	bne	a4,a5,201069f6 <metal_software_interrupt_vector_handler+0x78>
201069bc:	800007b7          	lui	a5,0x80000
201069c0:	68878793          	add	a5,a5,1672 # 80000688 <__metal_dt_cpu_0_interrupt_controller>
201069c4:	0d87a703          	lw	a4,216(a5)
201069c8:	0e07a583          	lw	a1,224(a5)
201069cc:	450d                	li	a0,3
201069ce:	9702                	jalr	a4
201069d0:	50f2                	lw	ra,60(sp)
201069d2:	52e2                	lw	t0,56(sp)
201069d4:	5352                	lw	t1,52(sp)
201069d6:	53c2                	lw	t2,48(sp)
201069d8:	5532                	lw	a0,44(sp)
201069da:	55a2                	lw	a1,40(sp)
201069dc:	5612                	lw	a2,36(sp)
201069de:	5682                	lw	a3,32(sp)
201069e0:	4772                	lw	a4,28(sp)
201069e2:	47e2                	lw	a5,24(sp)
201069e4:	4852                	lw	a6,20(sp)
201069e6:	48c2                	lw	a7,16(sp)
201069e8:	4e32                	lw	t3,12(sp)
201069ea:	4ea2                	lw	t4,8(sp)
201069ec:	4f12                	lw	t5,4(sp)
201069ee:	4f82                	lw	t6,0(sp)
201069f0:	6121                	add	sp,sp,64
201069f2:	30200073          	mret
201069f6:	0e002783          	lw	a5,224(zero) # e0 <__metal_chicken_bit+0xdf>
201069fa:	9002                	ebreak

201069fc <metal_timer_interrupt_vector_handler>:
metal_timer_interrupt_vector_handler():
201069fc:	7139                	add	sp,sp,-64
201069fe:	de06                	sw	ra,60(sp)
20106a00:	dc16                	sw	t0,56(sp)
20106a02:	da1a                	sw	t1,52(sp)
20106a04:	d81e                	sw	t2,48(sp)
20106a06:	d62a                	sw	a0,44(sp)
20106a08:	d42e                	sw	a1,40(sp)
20106a0a:	d232                	sw	a2,36(sp)
20106a0c:	d036                	sw	a3,32(sp)
20106a0e:	ce3a                	sw	a4,28(sp)
20106a10:	cc3e                	sw	a5,24(sp)
20106a12:	ca42                	sw	a6,20(sp)
20106a14:	c846                	sw	a7,16(sp)
20106a16:	c672                	sw	t3,12(sp)
20106a18:	c476                	sw	t4,8(sp)
20106a1a:	c27a                	sw	t5,4(sp)
20106a1c:	c07e                	sw	t6,0(sp)
20106a1e:	f14027f3          	csrr	a5,mhartid
20106a22:	80001737          	lui	a4,0x80001
20106a26:	a8470713          	add	a4,a4,-1404 # 80000a84 <__metal_cpu_table>
20106a2a:	078a                	sll	a5,a5,0x2
20106a2c:	97ba                	add	a5,a5,a4
20106a2e:	4398                	lw	a4,0(a5)
20106a30:	cf19                	beqz	a4,20106a4e <metal_timer_interrupt_vector_handler+0x52>
20106a32:	81c18793          	add	a5,gp,-2020 # 80000a9c <__metal_dt_cpu_0>
20106a36:	02f71f63          	bne	a4,a5,20106a74 <metal_timer_interrupt_vector_handler+0x78>
20106a3a:	800007b7          	lui	a5,0x80000
20106a3e:	68878793          	add	a5,a5,1672 # 80000688 <__metal_dt_cpu_0_interrupt_controller>
20106a42:	1387a703          	lw	a4,312(a5)
20106a46:	1407a583          	lw	a1,320(a5)
20106a4a:	451d                	li	a0,7
20106a4c:	9702                	jalr	a4
20106a4e:	50f2                	lw	ra,60(sp)
20106a50:	52e2                	lw	t0,56(sp)
20106a52:	5352                	lw	t1,52(sp)
20106a54:	53c2                	lw	t2,48(sp)
20106a56:	5532                	lw	a0,44(sp)
20106a58:	55a2                	lw	a1,40(sp)
20106a5a:	5612                	lw	a2,36(sp)
20106a5c:	5682                	lw	a3,32(sp)
20106a5e:	4772                	lw	a4,28(sp)
20106a60:	47e2                	lw	a5,24(sp)
20106a62:	4852                	lw	a6,20(sp)
20106a64:	48c2                	lw	a7,16(sp)
20106a66:	4e32                	lw	t3,12(sp)
20106a68:	4ea2                	lw	t4,8(sp)
20106a6a:	4f12                	lw	t5,4(sp)
20106a6c:	4f82                	lw	t6,0(sp)
20106a6e:	6121                	add	sp,sp,64
20106a70:	30200073          	mret
20106a74:	14002783          	lw	a5,320(zero) # 140 <__metal_chicken_bit+0x13f>
20106a78:	9002                	ebreak

20106a7a <metal_lc0_interrupt_vector_handler>:
metal_lc0_interrupt_vector_handler():
20106a7a:	7139                	add	sp,sp,-64
20106a7c:	de06                	sw	ra,60(sp)
20106a7e:	dc16                	sw	t0,56(sp)
20106a80:	da1a                	sw	t1,52(sp)
20106a82:	d81e                	sw	t2,48(sp)
20106a84:	d62a                	sw	a0,44(sp)
20106a86:	d42e                	sw	a1,40(sp)
20106a88:	d232                	sw	a2,36(sp)
20106a8a:	d036                	sw	a3,32(sp)
20106a8c:	ce3a                	sw	a4,28(sp)
20106a8e:	cc3e                	sw	a5,24(sp)
20106a90:	ca42                	sw	a6,20(sp)
20106a92:	c846                	sw	a7,16(sp)
20106a94:	c672                	sw	t3,12(sp)
20106a96:	c476                	sw	t4,8(sp)
20106a98:	c27a                	sw	t5,4(sp)
20106a9a:	c07e                	sw	t6,0(sp)
20106a9c:	f14027f3          	csrr	a5,mhartid
20106aa0:	80001737          	lui	a4,0x80001
20106aa4:	a8470713          	add	a4,a4,-1404 # 80000a84 <__metal_cpu_table>
20106aa8:	078a                	sll	a5,a5,0x2
20106aaa:	97ba                	add	a5,a5,a4
20106aac:	4398                	lw	a4,0(a5)
20106aae:	cf19                	beqz	a4,20106acc <metal_lc0_interrupt_vector_handler+0x52>
20106ab0:	81c18793          	add	a5,gp,-2020 # 80000a9c <__metal_dt_cpu_0>
20106ab4:	02f71f63          	bne	a4,a5,20106af2 <metal_lc0_interrupt_vector_handler+0x78>
20106ab8:	800007b7          	lui	a5,0x80000
20106abc:	68878793          	add	a5,a5,1672 # 80000688 <__metal_dt_cpu_0_interrupt_controller>
20106ac0:	2107a703          	lw	a4,528(a5)
20106ac4:	2187a583          	lw	a1,536(a5)
20106ac8:	4541                	li	a0,16
20106aca:	9702                	jalr	a4
20106acc:	50f2                	lw	ra,60(sp)
20106ace:	52e2                	lw	t0,56(sp)
20106ad0:	5352                	lw	t1,52(sp)
20106ad2:	53c2                	lw	t2,48(sp)
20106ad4:	5532                	lw	a0,44(sp)
20106ad6:	55a2                	lw	a1,40(sp)
20106ad8:	5612                	lw	a2,36(sp)
20106ada:	5682                	lw	a3,32(sp)
20106adc:	4772                	lw	a4,28(sp)
20106ade:	47e2                	lw	a5,24(sp)
20106ae0:	4852                	lw	a6,20(sp)
20106ae2:	48c2                	lw	a7,16(sp)
20106ae4:	4e32                	lw	t3,12(sp)
20106ae6:	4ea2                	lw	t4,8(sp)
20106ae8:	4f12                	lw	t5,4(sp)
20106aea:	4f82                	lw	t6,0(sp)
20106aec:	6121                	add	sp,sp,64
20106aee:	30200073          	mret
20106af2:	21802783          	lw	a5,536(zero) # 218 <__metal_chicken_bit+0x217>
20106af6:	9002                	ebreak

20106af8 <metal_lc1_interrupt_vector_handler>:
metal_lc1_interrupt_vector_handler():
20106af8:	7139                	add	sp,sp,-64
20106afa:	de06                	sw	ra,60(sp)
20106afc:	dc16                	sw	t0,56(sp)
20106afe:	da1a                	sw	t1,52(sp)
20106b00:	d81e                	sw	t2,48(sp)
20106b02:	d62a                	sw	a0,44(sp)
20106b04:	d42e                	sw	a1,40(sp)
20106b06:	d232                	sw	a2,36(sp)
20106b08:	d036                	sw	a3,32(sp)
20106b0a:	ce3a                	sw	a4,28(sp)
20106b0c:	cc3e                	sw	a5,24(sp)
20106b0e:	ca42                	sw	a6,20(sp)
20106b10:	c846                	sw	a7,16(sp)
20106b12:	c672                	sw	t3,12(sp)
20106b14:	c476                	sw	t4,8(sp)
20106b16:	c27a                	sw	t5,4(sp)
20106b18:	c07e                	sw	t6,0(sp)
20106b1a:	f14027f3          	csrr	a5,mhartid
20106b1e:	80001737          	lui	a4,0x80001
20106b22:	a8470713          	add	a4,a4,-1404 # 80000a84 <__metal_cpu_table>
20106b26:	078a                	sll	a5,a5,0x2
20106b28:	97ba                	add	a5,a5,a4
20106b2a:	4398                	lw	a4,0(a5)
20106b2c:	cf19                	beqz	a4,20106b4a <metal_lc1_interrupt_vector_handler+0x52>
20106b2e:	81c18793          	add	a5,gp,-2020 # 80000a9c <__metal_dt_cpu_0>
20106b32:	02f71f63          	bne	a4,a5,20106b70 <metal_lc1_interrupt_vector_handler+0x78>
20106b36:	800007b7          	lui	a5,0x80000
20106b3a:	68878793          	add	a5,a5,1672 # 80000688 <__metal_dt_cpu_0_interrupt_controller>
20106b3e:	2287a703          	lw	a4,552(a5)
20106b42:	2307a583          	lw	a1,560(a5)
20106b46:	4545                	li	a0,17
20106b48:	9702                	jalr	a4
20106b4a:	50f2                	lw	ra,60(sp)
20106b4c:	52e2                	lw	t0,56(sp)
20106b4e:	5352                	lw	t1,52(sp)
20106b50:	53c2                	lw	t2,48(sp)
20106b52:	5532                	lw	a0,44(sp)
20106b54:	55a2                	lw	a1,40(sp)
20106b56:	5612                	lw	a2,36(sp)
20106b58:	5682                	lw	a3,32(sp)
20106b5a:	4772                	lw	a4,28(sp)
20106b5c:	47e2                	lw	a5,24(sp)
20106b5e:	4852                	lw	a6,20(sp)
20106b60:	48c2                	lw	a7,16(sp)
20106b62:	4e32                	lw	t3,12(sp)
20106b64:	4ea2                	lw	t4,8(sp)
20106b66:	4f12                	lw	t5,4(sp)
20106b68:	4f82                	lw	t6,0(sp)
20106b6a:	6121                	add	sp,sp,64
20106b6c:	30200073          	mret
20106b70:	23002783          	lw	a5,560(zero) # 230 <__metal_chicken_bit+0x22f>
20106b74:	9002                	ebreak

20106b76 <metal_lc2_interrupt_vector_handler>:
metal_lc2_interrupt_vector_handler():
20106b76:	7139                	add	sp,sp,-64
20106b78:	de06                	sw	ra,60(sp)
20106b7a:	dc16                	sw	t0,56(sp)
20106b7c:	da1a                	sw	t1,52(sp)
20106b7e:	d81e                	sw	t2,48(sp)
20106b80:	d62a                	sw	a0,44(sp)
20106b82:	d42e                	sw	a1,40(sp)
20106b84:	d232                	sw	a2,36(sp)
20106b86:	d036                	sw	a3,32(sp)
20106b88:	ce3a                	sw	a4,28(sp)
20106b8a:	cc3e                	sw	a5,24(sp)
20106b8c:	ca42                	sw	a6,20(sp)
20106b8e:	c846                	sw	a7,16(sp)
20106b90:	c672                	sw	t3,12(sp)
20106b92:	c476                	sw	t4,8(sp)
20106b94:	c27a                	sw	t5,4(sp)
20106b96:	c07e                	sw	t6,0(sp)
20106b98:	f14027f3          	csrr	a5,mhartid
20106b9c:	80001737          	lui	a4,0x80001
20106ba0:	a8470713          	add	a4,a4,-1404 # 80000a84 <__metal_cpu_table>
20106ba4:	078a                	sll	a5,a5,0x2
20106ba6:	97ba                	add	a5,a5,a4
20106ba8:	4398                	lw	a4,0(a5)
20106baa:	cf19                	beqz	a4,20106bc8 <metal_lc2_interrupt_vector_handler+0x52>
20106bac:	81c18793          	add	a5,gp,-2020 # 80000a9c <__metal_dt_cpu_0>
20106bb0:	02f71f63          	bne	a4,a5,20106bee <metal_lc2_interrupt_vector_handler+0x78>
20106bb4:	800007b7          	lui	a5,0x80000
20106bb8:	68878793          	add	a5,a5,1672 # 80000688 <__metal_dt_cpu_0_interrupt_controller>
20106bbc:	2407a703          	lw	a4,576(a5)
20106bc0:	2487a583          	lw	a1,584(a5)
20106bc4:	4549                	li	a0,18
20106bc6:	9702                	jalr	a4
20106bc8:	50f2                	lw	ra,60(sp)
20106bca:	52e2                	lw	t0,56(sp)
20106bcc:	5352                	lw	t1,52(sp)
20106bce:	53c2                	lw	t2,48(sp)
20106bd0:	5532                	lw	a0,44(sp)
20106bd2:	55a2                	lw	a1,40(sp)
20106bd4:	5612                	lw	a2,36(sp)
20106bd6:	5682                	lw	a3,32(sp)
20106bd8:	4772                	lw	a4,28(sp)
20106bda:	47e2                	lw	a5,24(sp)
20106bdc:	4852                	lw	a6,20(sp)
20106bde:	48c2                	lw	a7,16(sp)
20106be0:	4e32                	lw	t3,12(sp)
20106be2:	4ea2                	lw	t4,8(sp)
20106be4:	4f12                	lw	t5,4(sp)
20106be6:	4f82                	lw	t6,0(sp)
20106be8:	6121                	add	sp,sp,64
20106bea:	30200073          	mret
20106bee:	24802783          	lw	a5,584(zero) # 248 <__metal_chicken_bit+0x247>
20106bf2:	9002                	ebreak

20106bf4 <metal_lc3_interrupt_vector_handler>:
metal_lc3_interrupt_vector_handler():
20106bf4:	7139                	add	sp,sp,-64
20106bf6:	de06                	sw	ra,60(sp)
20106bf8:	dc16                	sw	t0,56(sp)
20106bfa:	da1a                	sw	t1,52(sp)
20106bfc:	d81e                	sw	t2,48(sp)
20106bfe:	d62a                	sw	a0,44(sp)
20106c00:	d42e                	sw	a1,40(sp)
20106c02:	d232                	sw	a2,36(sp)
20106c04:	d036                	sw	a3,32(sp)
20106c06:	ce3a                	sw	a4,28(sp)
20106c08:	cc3e                	sw	a5,24(sp)
20106c0a:	ca42                	sw	a6,20(sp)
20106c0c:	c846                	sw	a7,16(sp)
20106c0e:	c672                	sw	t3,12(sp)
20106c10:	c476                	sw	t4,8(sp)
20106c12:	c27a                	sw	t5,4(sp)
20106c14:	c07e                	sw	t6,0(sp)
20106c16:	f14027f3          	csrr	a5,mhartid
20106c1a:	80001737          	lui	a4,0x80001
20106c1e:	a8470713          	add	a4,a4,-1404 # 80000a84 <__metal_cpu_table>
20106c22:	078a                	sll	a5,a5,0x2
20106c24:	97ba                	add	a5,a5,a4
20106c26:	4398                	lw	a4,0(a5)
20106c28:	cf19                	beqz	a4,20106c46 <metal_lc3_interrupt_vector_handler+0x52>
20106c2a:	81c18793          	add	a5,gp,-2020 # 80000a9c <__metal_dt_cpu_0>
20106c2e:	02f71f63          	bne	a4,a5,20106c6c <metal_lc3_interrupt_vector_handler+0x78>
20106c32:	800007b7          	lui	a5,0x80000
20106c36:	68878793          	add	a5,a5,1672 # 80000688 <__metal_dt_cpu_0_interrupt_controller>
20106c3a:	2587a703          	lw	a4,600(a5)
20106c3e:	2607a583          	lw	a1,608(a5)
20106c42:	454d                	li	a0,19
20106c44:	9702                	jalr	a4
20106c46:	50f2                	lw	ra,60(sp)
20106c48:	52e2                	lw	t0,56(sp)
20106c4a:	5352                	lw	t1,52(sp)
20106c4c:	53c2                	lw	t2,48(sp)
20106c4e:	5532                	lw	a0,44(sp)
20106c50:	55a2                	lw	a1,40(sp)
20106c52:	5612                	lw	a2,36(sp)
20106c54:	5682                	lw	a3,32(sp)
20106c56:	4772                	lw	a4,28(sp)
20106c58:	47e2                	lw	a5,24(sp)
20106c5a:	4852                	lw	a6,20(sp)
20106c5c:	48c2                	lw	a7,16(sp)
20106c5e:	4e32                	lw	t3,12(sp)
20106c60:	4ea2                	lw	t4,8(sp)
20106c62:	4f12                	lw	t5,4(sp)
20106c64:	4f82                	lw	t6,0(sp)
20106c66:	6121                	add	sp,sp,64
20106c68:	30200073          	mret
20106c6c:	26002783          	lw	a5,608(zero) # 260 <__metal_chicken_bit+0x25f>
20106c70:	9002                	ebreak

20106c72 <metal_lc4_interrupt_vector_handler>:
metal_lc4_interrupt_vector_handler():
20106c72:	7139                	add	sp,sp,-64
20106c74:	de06                	sw	ra,60(sp)
20106c76:	dc16                	sw	t0,56(sp)
20106c78:	da1a                	sw	t1,52(sp)
20106c7a:	d81e                	sw	t2,48(sp)
20106c7c:	d62a                	sw	a0,44(sp)
20106c7e:	d42e                	sw	a1,40(sp)
20106c80:	d232                	sw	a2,36(sp)
20106c82:	d036                	sw	a3,32(sp)
20106c84:	ce3a                	sw	a4,28(sp)
20106c86:	cc3e                	sw	a5,24(sp)
20106c88:	ca42                	sw	a6,20(sp)
20106c8a:	c846                	sw	a7,16(sp)
20106c8c:	c672                	sw	t3,12(sp)
20106c8e:	c476                	sw	t4,8(sp)
20106c90:	c27a                	sw	t5,4(sp)
20106c92:	c07e                	sw	t6,0(sp)
20106c94:	f14027f3          	csrr	a5,mhartid
20106c98:	80001737          	lui	a4,0x80001
20106c9c:	a8470713          	add	a4,a4,-1404 # 80000a84 <__metal_cpu_table>
20106ca0:	078a                	sll	a5,a5,0x2
20106ca2:	97ba                	add	a5,a5,a4
20106ca4:	4398                	lw	a4,0(a5)
20106ca6:	cf19                	beqz	a4,20106cc4 <metal_lc4_interrupt_vector_handler+0x52>
20106ca8:	81c18793          	add	a5,gp,-2020 # 80000a9c <__metal_dt_cpu_0>
20106cac:	02f71f63          	bne	a4,a5,20106cea <metal_lc4_interrupt_vector_handler+0x78>
20106cb0:	800007b7          	lui	a5,0x80000
20106cb4:	68878793          	add	a5,a5,1672 # 80000688 <__metal_dt_cpu_0_interrupt_controller>
20106cb8:	2707a703          	lw	a4,624(a5)
20106cbc:	2787a583          	lw	a1,632(a5)
20106cc0:	4551                	li	a0,20
20106cc2:	9702                	jalr	a4
20106cc4:	50f2                	lw	ra,60(sp)
20106cc6:	52e2                	lw	t0,56(sp)
20106cc8:	5352                	lw	t1,52(sp)
20106cca:	53c2                	lw	t2,48(sp)
20106ccc:	5532                	lw	a0,44(sp)
20106cce:	55a2                	lw	a1,40(sp)
20106cd0:	5612                	lw	a2,36(sp)
20106cd2:	5682                	lw	a3,32(sp)
20106cd4:	4772                	lw	a4,28(sp)
20106cd6:	47e2                	lw	a5,24(sp)
20106cd8:	4852                	lw	a6,20(sp)
20106cda:	48c2                	lw	a7,16(sp)
20106cdc:	4e32                	lw	t3,12(sp)
20106cde:	4ea2                	lw	t4,8(sp)
20106ce0:	4f12                	lw	t5,4(sp)
20106ce2:	4f82                	lw	t6,0(sp)
20106ce4:	6121                	add	sp,sp,64
20106ce6:	30200073          	mret
20106cea:	27802783          	lw	a5,632(zero) # 278 <__metal_chicken_bit+0x277>
20106cee:	9002                	ebreak

20106cf0 <metal_lc5_interrupt_vector_handler>:
metal_lc5_interrupt_vector_handler():
20106cf0:	7139                	add	sp,sp,-64
20106cf2:	de06                	sw	ra,60(sp)
20106cf4:	dc16                	sw	t0,56(sp)
20106cf6:	da1a                	sw	t1,52(sp)
20106cf8:	d81e                	sw	t2,48(sp)
20106cfa:	d62a                	sw	a0,44(sp)
20106cfc:	d42e                	sw	a1,40(sp)
20106cfe:	d232                	sw	a2,36(sp)
20106d00:	d036                	sw	a3,32(sp)
20106d02:	ce3a                	sw	a4,28(sp)
20106d04:	cc3e                	sw	a5,24(sp)
20106d06:	ca42                	sw	a6,20(sp)
20106d08:	c846                	sw	a7,16(sp)
20106d0a:	c672                	sw	t3,12(sp)
20106d0c:	c476                	sw	t4,8(sp)
20106d0e:	c27a                	sw	t5,4(sp)
20106d10:	c07e                	sw	t6,0(sp)
20106d12:	f14027f3          	csrr	a5,mhartid
20106d16:	80001737          	lui	a4,0x80001
20106d1a:	a8470713          	add	a4,a4,-1404 # 80000a84 <__metal_cpu_table>
20106d1e:	078a                	sll	a5,a5,0x2
20106d20:	97ba                	add	a5,a5,a4
20106d22:	4398                	lw	a4,0(a5)
20106d24:	cf19                	beqz	a4,20106d42 <metal_lc5_interrupt_vector_handler+0x52>
20106d26:	81c18793          	add	a5,gp,-2020 # 80000a9c <__metal_dt_cpu_0>
20106d2a:	02f71f63          	bne	a4,a5,20106d68 <metal_lc5_interrupt_vector_handler+0x78>
20106d2e:	800007b7          	lui	a5,0x80000
20106d32:	68878793          	add	a5,a5,1672 # 80000688 <__metal_dt_cpu_0_interrupt_controller>
20106d36:	2887a703          	lw	a4,648(a5)
20106d3a:	2907a583          	lw	a1,656(a5)
20106d3e:	4555                	li	a0,21
20106d40:	9702                	jalr	a4
20106d42:	50f2                	lw	ra,60(sp)
20106d44:	52e2                	lw	t0,56(sp)
20106d46:	5352                	lw	t1,52(sp)
20106d48:	53c2                	lw	t2,48(sp)
20106d4a:	5532                	lw	a0,44(sp)
20106d4c:	55a2                	lw	a1,40(sp)
20106d4e:	5612                	lw	a2,36(sp)
20106d50:	5682                	lw	a3,32(sp)
20106d52:	4772                	lw	a4,28(sp)
20106d54:	47e2                	lw	a5,24(sp)
20106d56:	4852                	lw	a6,20(sp)
20106d58:	48c2                	lw	a7,16(sp)
20106d5a:	4e32                	lw	t3,12(sp)
20106d5c:	4ea2                	lw	t4,8(sp)
20106d5e:	4f12                	lw	t5,4(sp)
20106d60:	4f82                	lw	t6,0(sp)
20106d62:	6121                	add	sp,sp,64
20106d64:	30200073          	mret
20106d68:	29002783          	lw	a5,656(zero) # 290 <__metal_chicken_bit+0x28f>
20106d6c:	9002                	ebreak

20106d6e <metal_lc6_interrupt_vector_handler>:
metal_lc6_interrupt_vector_handler():
20106d6e:	7139                	add	sp,sp,-64
20106d70:	de06                	sw	ra,60(sp)
20106d72:	dc16                	sw	t0,56(sp)
20106d74:	da1a                	sw	t1,52(sp)
20106d76:	d81e                	sw	t2,48(sp)
20106d78:	d62a                	sw	a0,44(sp)
20106d7a:	d42e                	sw	a1,40(sp)
20106d7c:	d232                	sw	a2,36(sp)
20106d7e:	d036                	sw	a3,32(sp)
20106d80:	ce3a                	sw	a4,28(sp)
20106d82:	cc3e                	sw	a5,24(sp)
20106d84:	ca42                	sw	a6,20(sp)
20106d86:	c846                	sw	a7,16(sp)
20106d88:	c672                	sw	t3,12(sp)
20106d8a:	c476                	sw	t4,8(sp)
20106d8c:	c27a                	sw	t5,4(sp)
20106d8e:	c07e                	sw	t6,0(sp)
20106d90:	f14027f3          	csrr	a5,mhartid
20106d94:	80001737          	lui	a4,0x80001
20106d98:	a8470713          	add	a4,a4,-1404 # 80000a84 <__metal_cpu_table>
20106d9c:	078a                	sll	a5,a5,0x2
20106d9e:	97ba                	add	a5,a5,a4
20106da0:	4398                	lw	a4,0(a5)
20106da2:	cf19                	beqz	a4,20106dc0 <metal_lc6_interrupt_vector_handler+0x52>
20106da4:	81c18793          	add	a5,gp,-2020 # 80000a9c <__metal_dt_cpu_0>
20106da8:	02f71f63          	bne	a4,a5,20106de6 <metal_lc6_interrupt_vector_handler+0x78>
20106dac:	800007b7          	lui	a5,0x80000
20106db0:	68878793          	add	a5,a5,1672 # 80000688 <__metal_dt_cpu_0_interrupt_controller>
20106db4:	2a07a703          	lw	a4,672(a5)
20106db8:	2a87a583          	lw	a1,680(a5)
20106dbc:	4559                	li	a0,22
20106dbe:	9702                	jalr	a4
20106dc0:	50f2                	lw	ra,60(sp)
20106dc2:	52e2                	lw	t0,56(sp)
20106dc4:	5352                	lw	t1,52(sp)
20106dc6:	53c2                	lw	t2,48(sp)
20106dc8:	5532                	lw	a0,44(sp)
20106dca:	55a2                	lw	a1,40(sp)
20106dcc:	5612                	lw	a2,36(sp)
20106dce:	5682                	lw	a3,32(sp)
20106dd0:	4772                	lw	a4,28(sp)
20106dd2:	47e2                	lw	a5,24(sp)
20106dd4:	4852                	lw	a6,20(sp)
20106dd6:	48c2                	lw	a7,16(sp)
20106dd8:	4e32                	lw	t3,12(sp)
20106dda:	4ea2                	lw	t4,8(sp)
20106ddc:	4f12                	lw	t5,4(sp)
20106dde:	4f82                	lw	t6,0(sp)
20106de0:	6121                	add	sp,sp,64
20106de2:	30200073          	mret
20106de6:	2a802783          	lw	a5,680(zero) # 2a8 <__metal_chicken_bit+0x2a7>
20106dea:	9002                	ebreak

20106dec <metal_lc7_interrupt_vector_handler>:
metal_lc7_interrupt_vector_handler():
20106dec:	7139                	add	sp,sp,-64
20106dee:	de06                	sw	ra,60(sp)
20106df0:	dc16                	sw	t0,56(sp)
20106df2:	da1a                	sw	t1,52(sp)
20106df4:	d81e                	sw	t2,48(sp)
20106df6:	d62a                	sw	a0,44(sp)
20106df8:	d42e                	sw	a1,40(sp)
20106dfa:	d232                	sw	a2,36(sp)
20106dfc:	d036                	sw	a3,32(sp)
20106dfe:	ce3a                	sw	a4,28(sp)
20106e00:	cc3e                	sw	a5,24(sp)
20106e02:	ca42                	sw	a6,20(sp)
20106e04:	c846                	sw	a7,16(sp)
20106e06:	c672                	sw	t3,12(sp)
20106e08:	c476                	sw	t4,8(sp)
20106e0a:	c27a                	sw	t5,4(sp)
20106e0c:	c07e                	sw	t6,0(sp)
20106e0e:	f14027f3          	csrr	a5,mhartid
20106e12:	80001737          	lui	a4,0x80001
20106e16:	a8470713          	add	a4,a4,-1404 # 80000a84 <__metal_cpu_table>
20106e1a:	078a                	sll	a5,a5,0x2
20106e1c:	97ba                	add	a5,a5,a4
20106e1e:	4398                	lw	a4,0(a5)
20106e20:	cf19                	beqz	a4,20106e3e <metal_lc7_interrupt_vector_handler+0x52>
20106e22:	81c18793          	add	a5,gp,-2020 # 80000a9c <__metal_dt_cpu_0>
20106e26:	02f71f63          	bne	a4,a5,20106e64 <metal_lc7_interrupt_vector_handler+0x78>
20106e2a:	800007b7          	lui	a5,0x80000
20106e2e:	68878793          	add	a5,a5,1672 # 80000688 <__metal_dt_cpu_0_interrupt_controller>
20106e32:	2b87a703          	lw	a4,696(a5)
20106e36:	2c07a583          	lw	a1,704(a5)
20106e3a:	455d                	li	a0,23
20106e3c:	9702                	jalr	a4
20106e3e:	50f2                	lw	ra,60(sp)
20106e40:	52e2                	lw	t0,56(sp)
20106e42:	5352                	lw	t1,52(sp)
20106e44:	53c2                	lw	t2,48(sp)
20106e46:	5532                	lw	a0,44(sp)
20106e48:	55a2                	lw	a1,40(sp)
20106e4a:	5612                	lw	a2,36(sp)
20106e4c:	5682                	lw	a3,32(sp)
20106e4e:	4772                	lw	a4,28(sp)
20106e50:	47e2                	lw	a5,24(sp)
20106e52:	4852                	lw	a6,20(sp)
20106e54:	48c2                	lw	a7,16(sp)
20106e56:	4e32                	lw	t3,12(sp)
20106e58:	4ea2                	lw	t4,8(sp)
20106e5a:	4f12                	lw	t5,4(sp)
20106e5c:	4f82                	lw	t6,0(sp)
20106e5e:	6121                	add	sp,sp,64
20106e60:	30200073          	mret
20106e64:	2c002783          	lw	a5,704(zero) # 2c0 <__metal_chicken_bit+0x2bf>
20106e68:	9002                	ebreak

20106e6a <metal_lc8_interrupt_vector_handler>:
metal_lc8_interrupt_vector_handler():
20106e6a:	7139                	add	sp,sp,-64
20106e6c:	de06                	sw	ra,60(sp)
20106e6e:	dc16                	sw	t0,56(sp)
20106e70:	da1a                	sw	t1,52(sp)
20106e72:	d81e                	sw	t2,48(sp)
20106e74:	d62a                	sw	a0,44(sp)
20106e76:	d42e                	sw	a1,40(sp)
20106e78:	d232                	sw	a2,36(sp)
20106e7a:	d036                	sw	a3,32(sp)
20106e7c:	ce3a                	sw	a4,28(sp)
20106e7e:	cc3e                	sw	a5,24(sp)
20106e80:	ca42                	sw	a6,20(sp)
20106e82:	c846                	sw	a7,16(sp)
20106e84:	c672                	sw	t3,12(sp)
20106e86:	c476                	sw	t4,8(sp)
20106e88:	c27a                	sw	t5,4(sp)
20106e8a:	c07e                	sw	t6,0(sp)
20106e8c:	f14027f3          	csrr	a5,mhartid
20106e90:	80001737          	lui	a4,0x80001
20106e94:	a8470713          	add	a4,a4,-1404 # 80000a84 <__metal_cpu_table>
20106e98:	078a                	sll	a5,a5,0x2
20106e9a:	97ba                	add	a5,a5,a4
20106e9c:	4398                	lw	a4,0(a5)
20106e9e:	cf19                	beqz	a4,20106ebc <metal_lc8_interrupt_vector_handler+0x52>
20106ea0:	81c18793          	add	a5,gp,-2020 # 80000a9c <__metal_dt_cpu_0>
20106ea4:	02f71f63          	bne	a4,a5,20106ee2 <metal_lc8_interrupt_vector_handler+0x78>
20106ea8:	800007b7          	lui	a5,0x80000
20106eac:	68878793          	add	a5,a5,1672 # 80000688 <__metal_dt_cpu_0_interrupt_controller>
20106eb0:	2d07a703          	lw	a4,720(a5)
20106eb4:	2d87a583          	lw	a1,728(a5)
20106eb8:	4561                	li	a0,24
20106eba:	9702                	jalr	a4
20106ebc:	50f2                	lw	ra,60(sp)
20106ebe:	52e2                	lw	t0,56(sp)
20106ec0:	5352                	lw	t1,52(sp)
20106ec2:	53c2                	lw	t2,48(sp)
20106ec4:	5532                	lw	a0,44(sp)
20106ec6:	55a2                	lw	a1,40(sp)
20106ec8:	5612                	lw	a2,36(sp)
20106eca:	5682                	lw	a3,32(sp)
20106ecc:	4772                	lw	a4,28(sp)
20106ece:	47e2                	lw	a5,24(sp)
20106ed0:	4852                	lw	a6,20(sp)
20106ed2:	48c2                	lw	a7,16(sp)
20106ed4:	4e32                	lw	t3,12(sp)
20106ed6:	4ea2                	lw	t4,8(sp)
20106ed8:	4f12                	lw	t5,4(sp)
20106eda:	4f82                	lw	t6,0(sp)
20106edc:	6121                	add	sp,sp,64
20106ede:	30200073          	mret
20106ee2:	2d802783          	lw	a5,728(zero) # 2d8 <__metal_chicken_bit+0x2d7>
20106ee6:	9002                	ebreak

20106ee8 <metal_lc9_interrupt_vector_handler>:
metal_lc9_interrupt_vector_handler():
20106ee8:	7139                	add	sp,sp,-64
20106eea:	de06                	sw	ra,60(sp)
20106eec:	dc16                	sw	t0,56(sp)
20106eee:	da1a                	sw	t1,52(sp)
20106ef0:	d81e                	sw	t2,48(sp)
20106ef2:	d62a                	sw	a0,44(sp)
20106ef4:	d42e                	sw	a1,40(sp)
20106ef6:	d232                	sw	a2,36(sp)
20106ef8:	d036                	sw	a3,32(sp)
20106efa:	ce3a                	sw	a4,28(sp)
20106efc:	cc3e                	sw	a5,24(sp)
20106efe:	ca42                	sw	a6,20(sp)
20106f00:	c846                	sw	a7,16(sp)
20106f02:	c672                	sw	t3,12(sp)
20106f04:	c476                	sw	t4,8(sp)
20106f06:	c27a                	sw	t5,4(sp)
20106f08:	c07e                	sw	t6,0(sp)
20106f0a:	f14027f3          	csrr	a5,mhartid
20106f0e:	80001737          	lui	a4,0x80001
20106f12:	a8470713          	add	a4,a4,-1404 # 80000a84 <__metal_cpu_table>
20106f16:	078a                	sll	a5,a5,0x2
20106f18:	97ba                	add	a5,a5,a4
20106f1a:	4398                	lw	a4,0(a5)
20106f1c:	cf19                	beqz	a4,20106f3a <metal_lc9_interrupt_vector_handler+0x52>
20106f1e:	81c18793          	add	a5,gp,-2020 # 80000a9c <__metal_dt_cpu_0>
20106f22:	02f71f63          	bne	a4,a5,20106f60 <metal_lc9_interrupt_vector_handler+0x78>
20106f26:	800007b7          	lui	a5,0x80000
20106f2a:	68878793          	add	a5,a5,1672 # 80000688 <__metal_dt_cpu_0_interrupt_controller>
20106f2e:	2e87a703          	lw	a4,744(a5)
20106f32:	2f07a583          	lw	a1,752(a5)
20106f36:	4565                	li	a0,25
20106f38:	9702                	jalr	a4
20106f3a:	50f2                	lw	ra,60(sp)
20106f3c:	52e2                	lw	t0,56(sp)
20106f3e:	5352                	lw	t1,52(sp)
20106f40:	53c2                	lw	t2,48(sp)
20106f42:	5532                	lw	a0,44(sp)
20106f44:	55a2                	lw	a1,40(sp)
20106f46:	5612                	lw	a2,36(sp)
20106f48:	5682                	lw	a3,32(sp)
20106f4a:	4772                	lw	a4,28(sp)
20106f4c:	47e2                	lw	a5,24(sp)
20106f4e:	4852                	lw	a6,20(sp)
20106f50:	48c2                	lw	a7,16(sp)
20106f52:	4e32                	lw	t3,12(sp)
20106f54:	4ea2                	lw	t4,8(sp)
20106f56:	4f12                	lw	t5,4(sp)
20106f58:	4f82                	lw	t6,0(sp)
20106f5a:	6121                	add	sp,sp,64
20106f5c:	30200073          	mret
20106f60:	2f002783          	lw	a5,752(zero) # 2f0 <__metal_chicken_bit+0x2ef>
20106f64:	9002                	ebreak

20106f66 <metal_lc10_interrupt_vector_handler>:
metal_lc10_interrupt_vector_handler():
20106f66:	7139                	add	sp,sp,-64
20106f68:	de06                	sw	ra,60(sp)
20106f6a:	dc16                	sw	t0,56(sp)
20106f6c:	da1a                	sw	t1,52(sp)
20106f6e:	d81e                	sw	t2,48(sp)
20106f70:	d62a                	sw	a0,44(sp)
20106f72:	d42e                	sw	a1,40(sp)
20106f74:	d232                	sw	a2,36(sp)
20106f76:	d036                	sw	a3,32(sp)
20106f78:	ce3a                	sw	a4,28(sp)
20106f7a:	cc3e                	sw	a5,24(sp)
20106f7c:	ca42                	sw	a6,20(sp)
20106f7e:	c846                	sw	a7,16(sp)
20106f80:	c672                	sw	t3,12(sp)
20106f82:	c476                	sw	t4,8(sp)
20106f84:	c27a                	sw	t5,4(sp)
20106f86:	c07e                	sw	t6,0(sp)
20106f88:	f14027f3          	csrr	a5,mhartid
20106f8c:	80001737          	lui	a4,0x80001
20106f90:	a8470713          	add	a4,a4,-1404 # 80000a84 <__metal_cpu_table>
20106f94:	078a                	sll	a5,a5,0x2
20106f96:	97ba                	add	a5,a5,a4
20106f98:	4398                	lw	a4,0(a5)
20106f9a:	cf19                	beqz	a4,20106fb8 <metal_lc10_interrupt_vector_handler+0x52>
20106f9c:	81c18793          	add	a5,gp,-2020 # 80000a9c <__metal_dt_cpu_0>
20106fa0:	02f71f63          	bne	a4,a5,20106fde <metal_lc10_interrupt_vector_handler+0x78>
20106fa4:	800007b7          	lui	a5,0x80000
20106fa8:	68878793          	add	a5,a5,1672 # 80000688 <__metal_dt_cpu_0_interrupt_controller>
20106fac:	3007a703          	lw	a4,768(a5)
20106fb0:	3087a583          	lw	a1,776(a5)
20106fb4:	4569                	li	a0,26
20106fb6:	9702                	jalr	a4
20106fb8:	50f2                	lw	ra,60(sp)
20106fba:	52e2                	lw	t0,56(sp)
20106fbc:	5352                	lw	t1,52(sp)
20106fbe:	53c2                	lw	t2,48(sp)
20106fc0:	5532                	lw	a0,44(sp)
20106fc2:	55a2                	lw	a1,40(sp)
20106fc4:	5612                	lw	a2,36(sp)
20106fc6:	5682                	lw	a3,32(sp)
20106fc8:	4772                	lw	a4,28(sp)
20106fca:	47e2                	lw	a5,24(sp)
20106fcc:	4852                	lw	a6,20(sp)
20106fce:	48c2                	lw	a7,16(sp)
20106fd0:	4e32                	lw	t3,12(sp)
20106fd2:	4ea2                	lw	t4,8(sp)
20106fd4:	4f12                	lw	t5,4(sp)
20106fd6:	4f82                	lw	t6,0(sp)
20106fd8:	6121                	add	sp,sp,64
20106fda:	30200073          	mret
20106fde:	30802783          	lw	a5,776(zero) # 308 <__metal_chicken_bit+0x307>
20106fe2:	9002                	ebreak

20106fe4 <metal_lc11_interrupt_vector_handler>:
metal_lc11_interrupt_vector_handler():
20106fe4:	7139                	add	sp,sp,-64
20106fe6:	de06                	sw	ra,60(sp)
20106fe8:	dc16                	sw	t0,56(sp)
20106fea:	da1a                	sw	t1,52(sp)
20106fec:	d81e                	sw	t2,48(sp)
20106fee:	d62a                	sw	a0,44(sp)
20106ff0:	d42e                	sw	a1,40(sp)
20106ff2:	d232                	sw	a2,36(sp)
20106ff4:	d036                	sw	a3,32(sp)
20106ff6:	ce3a                	sw	a4,28(sp)
20106ff8:	cc3e                	sw	a5,24(sp)
20106ffa:	ca42                	sw	a6,20(sp)
20106ffc:	c846                	sw	a7,16(sp)
20106ffe:	c672                	sw	t3,12(sp)
20107000:	c476                	sw	t4,8(sp)
20107002:	c27a                	sw	t5,4(sp)
20107004:	c07e                	sw	t6,0(sp)
20107006:	f14027f3          	csrr	a5,mhartid
2010700a:	80001737          	lui	a4,0x80001
2010700e:	a8470713          	add	a4,a4,-1404 # 80000a84 <__metal_cpu_table>
20107012:	078a                	sll	a5,a5,0x2
20107014:	97ba                	add	a5,a5,a4
20107016:	4398                	lw	a4,0(a5)
20107018:	cf19                	beqz	a4,20107036 <metal_lc11_interrupt_vector_handler+0x52>
2010701a:	81c18793          	add	a5,gp,-2020 # 80000a9c <__metal_dt_cpu_0>
2010701e:	02f71f63          	bne	a4,a5,2010705c <metal_lc11_interrupt_vector_handler+0x78>
20107022:	800007b7          	lui	a5,0x80000
20107026:	68878793          	add	a5,a5,1672 # 80000688 <__metal_dt_cpu_0_interrupt_controller>
2010702a:	3187a703          	lw	a4,792(a5)
2010702e:	3207a583          	lw	a1,800(a5)
20107032:	456d                	li	a0,27
20107034:	9702                	jalr	a4
20107036:	50f2                	lw	ra,60(sp)
20107038:	52e2                	lw	t0,56(sp)
2010703a:	5352                	lw	t1,52(sp)
2010703c:	53c2                	lw	t2,48(sp)
2010703e:	5532                	lw	a0,44(sp)
20107040:	55a2                	lw	a1,40(sp)
20107042:	5612                	lw	a2,36(sp)
20107044:	5682                	lw	a3,32(sp)
20107046:	4772                	lw	a4,28(sp)
20107048:	47e2                	lw	a5,24(sp)
2010704a:	4852                	lw	a6,20(sp)
2010704c:	48c2                	lw	a7,16(sp)
2010704e:	4e32                	lw	t3,12(sp)
20107050:	4ea2                	lw	t4,8(sp)
20107052:	4f12                	lw	t5,4(sp)
20107054:	4f82                	lw	t6,0(sp)
20107056:	6121                	add	sp,sp,64
20107058:	30200073          	mret
2010705c:	32002783          	lw	a5,800(zero) # 320 <__metal_chicken_bit+0x31f>
20107060:	9002                	ebreak

20107062 <metal_lc12_interrupt_vector_handler>:
metal_lc12_interrupt_vector_handler():
20107062:	7139                	add	sp,sp,-64
20107064:	de06                	sw	ra,60(sp)
20107066:	dc16                	sw	t0,56(sp)
20107068:	da1a                	sw	t1,52(sp)
2010706a:	d81e                	sw	t2,48(sp)
2010706c:	d62a                	sw	a0,44(sp)
2010706e:	d42e                	sw	a1,40(sp)
20107070:	d232                	sw	a2,36(sp)
20107072:	d036                	sw	a3,32(sp)
20107074:	ce3a                	sw	a4,28(sp)
20107076:	cc3e                	sw	a5,24(sp)
20107078:	ca42                	sw	a6,20(sp)
2010707a:	c846                	sw	a7,16(sp)
2010707c:	c672                	sw	t3,12(sp)
2010707e:	c476                	sw	t4,8(sp)
20107080:	c27a                	sw	t5,4(sp)
20107082:	c07e                	sw	t6,0(sp)
20107084:	f14027f3          	csrr	a5,mhartid
20107088:	80001737          	lui	a4,0x80001
2010708c:	a8470713          	add	a4,a4,-1404 # 80000a84 <__metal_cpu_table>
20107090:	078a                	sll	a5,a5,0x2
20107092:	97ba                	add	a5,a5,a4
20107094:	4398                	lw	a4,0(a5)
20107096:	cf19                	beqz	a4,201070b4 <metal_lc12_interrupt_vector_handler+0x52>
20107098:	81c18793          	add	a5,gp,-2020 # 80000a9c <__metal_dt_cpu_0>
2010709c:	02f71f63          	bne	a4,a5,201070da <metal_lc12_interrupt_vector_handler+0x78>
201070a0:	800007b7          	lui	a5,0x80000
201070a4:	68878793          	add	a5,a5,1672 # 80000688 <__metal_dt_cpu_0_interrupt_controller>
201070a8:	3307a703          	lw	a4,816(a5)
201070ac:	3387a583          	lw	a1,824(a5)
201070b0:	4571                	li	a0,28
201070b2:	9702                	jalr	a4
201070b4:	50f2                	lw	ra,60(sp)
201070b6:	52e2                	lw	t0,56(sp)
201070b8:	5352                	lw	t1,52(sp)
201070ba:	53c2                	lw	t2,48(sp)
201070bc:	5532                	lw	a0,44(sp)
201070be:	55a2                	lw	a1,40(sp)
201070c0:	5612                	lw	a2,36(sp)
201070c2:	5682                	lw	a3,32(sp)
201070c4:	4772                	lw	a4,28(sp)
201070c6:	47e2                	lw	a5,24(sp)
201070c8:	4852                	lw	a6,20(sp)
201070ca:	48c2                	lw	a7,16(sp)
201070cc:	4e32                	lw	t3,12(sp)
201070ce:	4ea2                	lw	t4,8(sp)
201070d0:	4f12                	lw	t5,4(sp)
201070d2:	4f82                	lw	t6,0(sp)
201070d4:	6121                	add	sp,sp,64
201070d6:	30200073          	mret
201070da:	33802783          	lw	a5,824(zero) # 338 <__metal_chicken_bit+0x337>
201070de:	9002                	ebreak

201070e0 <metal_lc13_interrupt_vector_handler>:
metal_lc13_interrupt_vector_handler():
201070e0:	7139                	add	sp,sp,-64
201070e2:	de06                	sw	ra,60(sp)
201070e4:	dc16                	sw	t0,56(sp)
201070e6:	da1a                	sw	t1,52(sp)
201070e8:	d81e                	sw	t2,48(sp)
201070ea:	d62a                	sw	a0,44(sp)
201070ec:	d42e                	sw	a1,40(sp)
201070ee:	d232                	sw	a2,36(sp)
201070f0:	d036                	sw	a3,32(sp)
201070f2:	ce3a                	sw	a4,28(sp)
201070f4:	cc3e                	sw	a5,24(sp)
201070f6:	ca42                	sw	a6,20(sp)
201070f8:	c846                	sw	a7,16(sp)
201070fa:	c672                	sw	t3,12(sp)
201070fc:	c476                	sw	t4,8(sp)
201070fe:	c27a                	sw	t5,4(sp)
20107100:	c07e                	sw	t6,0(sp)
20107102:	f14027f3          	csrr	a5,mhartid
20107106:	80001737          	lui	a4,0x80001
2010710a:	a8470713          	add	a4,a4,-1404 # 80000a84 <__metal_cpu_table>
2010710e:	078a                	sll	a5,a5,0x2
20107110:	97ba                	add	a5,a5,a4
20107112:	4398                	lw	a4,0(a5)
20107114:	cf19                	beqz	a4,20107132 <metal_lc13_interrupt_vector_handler+0x52>
20107116:	81c18793          	add	a5,gp,-2020 # 80000a9c <__metal_dt_cpu_0>
2010711a:	02f71f63          	bne	a4,a5,20107158 <metal_lc13_interrupt_vector_handler+0x78>
2010711e:	800007b7          	lui	a5,0x80000
20107122:	68878793          	add	a5,a5,1672 # 80000688 <__metal_dt_cpu_0_interrupt_controller>
20107126:	3487a703          	lw	a4,840(a5)
2010712a:	3507a583          	lw	a1,848(a5)
2010712e:	4575                	li	a0,29
20107130:	9702                	jalr	a4
20107132:	50f2                	lw	ra,60(sp)
20107134:	52e2                	lw	t0,56(sp)
20107136:	5352                	lw	t1,52(sp)
20107138:	53c2                	lw	t2,48(sp)
2010713a:	5532                	lw	a0,44(sp)
2010713c:	55a2                	lw	a1,40(sp)
2010713e:	5612                	lw	a2,36(sp)
20107140:	5682                	lw	a3,32(sp)
20107142:	4772                	lw	a4,28(sp)
20107144:	47e2                	lw	a5,24(sp)
20107146:	4852                	lw	a6,20(sp)
20107148:	48c2                	lw	a7,16(sp)
2010714a:	4e32                	lw	t3,12(sp)
2010714c:	4ea2                	lw	t4,8(sp)
2010714e:	4f12                	lw	t5,4(sp)
20107150:	4f82                	lw	t6,0(sp)
20107152:	6121                	add	sp,sp,64
20107154:	30200073          	mret
20107158:	35002783          	lw	a5,848(zero) # 350 <__metal_chicken_bit+0x34f>
2010715c:	9002                	ebreak

2010715e <metal_lc14_interrupt_vector_handler>:
metal_lc14_interrupt_vector_handler():
2010715e:	7139                	add	sp,sp,-64
20107160:	de06                	sw	ra,60(sp)
20107162:	dc16                	sw	t0,56(sp)
20107164:	da1a                	sw	t1,52(sp)
20107166:	d81e                	sw	t2,48(sp)
20107168:	d62a                	sw	a0,44(sp)
2010716a:	d42e                	sw	a1,40(sp)
2010716c:	d232                	sw	a2,36(sp)
2010716e:	d036                	sw	a3,32(sp)
20107170:	ce3a                	sw	a4,28(sp)
20107172:	cc3e                	sw	a5,24(sp)
20107174:	ca42                	sw	a6,20(sp)
20107176:	c846                	sw	a7,16(sp)
20107178:	c672                	sw	t3,12(sp)
2010717a:	c476                	sw	t4,8(sp)
2010717c:	c27a                	sw	t5,4(sp)
2010717e:	c07e                	sw	t6,0(sp)
20107180:	f14027f3          	csrr	a5,mhartid
20107184:	80001737          	lui	a4,0x80001
20107188:	a8470713          	add	a4,a4,-1404 # 80000a84 <__metal_cpu_table>
2010718c:	078a                	sll	a5,a5,0x2
2010718e:	97ba                	add	a5,a5,a4
20107190:	4398                	lw	a4,0(a5)
20107192:	cf19                	beqz	a4,201071b0 <metal_lc14_interrupt_vector_handler+0x52>
20107194:	81c18793          	add	a5,gp,-2020 # 80000a9c <__metal_dt_cpu_0>
20107198:	02f71f63          	bne	a4,a5,201071d6 <metal_lc14_interrupt_vector_handler+0x78>
2010719c:	800007b7          	lui	a5,0x80000
201071a0:	68878793          	add	a5,a5,1672 # 80000688 <__metal_dt_cpu_0_interrupt_controller>
201071a4:	3607a703          	lw	a4,864(a5)
201071a8:	3687a583          	lw	a1,872(a5)
201071ac:	4579                	li	a0,30
201071ae:	9702                	jalr	a4
201071b0:	50f2                	lw	ra,60(sp)
201071b2:	52e2                	lw	t0,56(sp)
201071b4:	5352                	lw	t1,52(sp)
201071b6:	53c2                	lw	t2,48(sp)
201071b8:	5532                	lw	a0,44(sp)
201071ba:	55a2                	lw	a1,40(sp)
201071bc:	5612                	lw	a2,36(sp)
201071be:	5682                	lw	a3,32(sp)
201071c0:	4772                	lw	a4,28(sp)
201071c2:	47e2                	lw	a5,24(sp)
201071c4:	4852                	lw	a6,20(sp)
201071c6:	48c2                	lw	a7,16(sp)
201071c8:	4e32                	lw	t3,12(sp)
201071ca:	4ea2                	lw	t4,8(sp)
201071cc:	4f12                	lw	t5,4(sp)
201071ce:	4f82                	lw	t6,0(sp)
201071d0:	6121                	add	sp,sp,64
201071d2:	30200073          	mret
201071d6:	36802783          	lw	a5,872(zero) # 368 <__metal_chicken_bit+0x367>
201071da:	9002                	ebreak

201071dc <metal_lc15_interrupt_vector_handler>:
metal_lc15_interrupt_vector_handler():
201071dc:	7139                	add	sp,sp,-64
201071de:	de06                	sw	ra,60(sp)
201071e0:	dc16                	sw	t0,56(sp)
201071e2:	da1a                	sw	t1,52(sp)
201071e4:	d81e                	sw	t2,48(sp)
201071e6:	d62a                	sw	a0,44(sp)
201071e8:	d42e                	sw	a1,40(sp)
201071ea:	d232                	sw	a2,36(sp)
201071ec:	d036                	sw	a3,32(sp)
201071ee:	ce3a                	sw	a4,28(sp)
201071f0:	cc3e                	sw	a5,24(sp)
201071f2:	ca42                	sw	a6,20(sp)
201071f4:	c846                	sw	a7,16(sp)
201071f6:	c672                	sw	t3,12(sp)
201071f8:	c476                	sw	t4,8(sp)
201071fa:	c27a                	sw	t5,4(sp)
201071fc:	c07e                	sw	t6,0(sp)
201071fe:	f14027f3          	csrr	a5,mhartid
20107202:	80001737          	lui	a4,0x80001
20107206:	a8470713          	add	a4,a4,-1404 # 80000a84 <__metal_cpu_table>
2010720a:	078a                	sll	a5,a5,0x2
2010720c:	97ba                	add	a5,a5,a4
2010720e:	4398                	lw	a4,0(a5)
20107210:	cf19                	beqz	a4,2010722e <metal_lc15_interrupt_vector_handler+0x52>
20107212:	81c18793          	add	a5,gp,-2020 # 80000a9c <__metal_dt_cpu_0>
20107216:	02f71f63          	bne	a4,a5,20107254 <metal_lc15_interrupt_vector_handler+0x78>
2010721a:	800007b7          	lui	a5,0x80000
2010721e:	68878793          	add	a5,a5,1672 # 80000688 <__metal_dt_cpu_0_interrupt_controller>
20107222:	3787a703          	lw	a4,888(a5)
20107226:	3807a583          	lw	a1,896(a5)
2010722a:	457d                	li	a0,31
2010722c:	9702                	jalr	a4
2010722e:	50f2                	lw	ra,60(sp)
20107230:	52e2                	lw	t0,56(sp)
20107232:	5352                	lw	t1,52(sp)
20107234:	53c2                	lw	t2,48(sp)
20107236:	5532                	lw	a0,44(sp)
20107238:	55a2                	lw	a1,40(sp)
2010723a:	5612                	lw	a2,36(sp)
2010723c:	5682                	lw	a3,32(sp)
2010723e:	4772                	lw	a4,28(sp)
20107240:	47e2                	lw	a5,24(sp)
20107242:	4852                	lw	a6,20(sp)
20107244:	48c2                	lw	a7,16(sp)
20107246:	4e32                	lw	t3,12(sp)
20107248:	4ea2                	lw	t4,8(sp)
2010724a:	4f12                	lw	t5,4(sp)
2010724c:	4f82                	lw	t6,0(sp)
2010724e:	6121                	add	sp,sp,64
20107250:	30200073          	mret
20107254:	38002783          	lw	a5,896(zero) # 380 <__metal_chicken_bit+0x37f>
20107258:	9002                	ebreak

2010725a <__metal_controller_interrupt_vector_mode>:
__metal_controller_interrupt_vector_mode():
2010725a:	305027f3          	csrr	a5,mtvec
2010725e:	03f7f793          	and	a5,a5,63
20107262:	17fd                	add	a5,a5,-1
20107264:	4709                	li	a4,2
20107266:	4501                	li	a0,0
20107268:	00f76963          	bltu	a4,a5,2010727a <__metal_controller_interrupt_vector_mode+0x20>
2010726c:	20105737          	lui	a4,0x20105
20107270:	ad870713          	add	a4,a4,-1320 # 20104ad8 <CSWTCH.79>
20107274:	97ba                	add	a5,a5,a4
20107276:	0007c503          	lbu	a0,0(a5)
2010727a:	8082                	ret

2010727c <__metal_driver_riscv_cpu_controller_get_vector_mode>:
__metal_driver_riscv_cpu_controller_get_vector_mode():
2010727c:	bff9                	j	2010725a <__metal_controller_interrupt_vector_mode>

2010727e <__metal_valid_interrupt_id>:
__metal_valid_interrupt_id():
2010727e:	47fd                	li	a5,31
20107280:	872a                	mv	a4,a0
20107282:	00a7cd63          	blt	a5,a0,2010729c <__metal_valid_interrupt_id+0x1e>
20107286:	4789                	li	a5,2
20107288:	4501                	li	a0,0
2010728a:	00e7dd63          	bge	a5,a4,201072a4 <__metal_valid_interrupt_id+0x26>
2010728e:	77c5                	lui	a5,0xffff1
20107290:	88878793          	add	a5,a5,-1912 # ffff0888 <metal_segment_heap_target_end+0x7ffef118>
20107294:	00e7d533          	srl	a0,a5,a4
20107298:	8905                	and	a0,a0,1
2010729a:	8082                	ret
2010729c:	f8050713          	add	a4,a0,-128
201072a0:	00173513          	seqz	a0,a4
201072a4:	8082                	ret

201072a6 <__metal_driver_riscv_cpu_controller_interrupt_register>:
__metal_driver_riscv_cpu_controller_interrupt_register():
201072a6:	1101                	add	sp,sp,-32
201072a8:	ca26                	sw	s1,20(sp)
201072aa:	84aa                	mv	s1,a0
201072ac:	852e                	mv	a0,a1
201072ae:	cc22                	sw	s0,24(sp)
201072b0:	c84a                	sw	s2,16(sp)
201072b2:	c64e                	sw	s3,12(sp)
201072b4:	ce06                	sw	ra,28(sp)
201072b6:	842e                	mv	s0,a1
201072b8:	89b2                	mv	s3,a2
201072ba:	8936                	mv	s2,a3
201072bc:	37c9                	jal	2010727e <__metal_valid_interrupt_id>
201072be:	57d5                	li	a5,-11
201072c0:	c529                	beqz	a0,2010730a <__metal_driver_riscv_cpu_controller_interrupt_register+0x64>
201072c2:	08000793          	li	a5,128
201072c6:	00f40e63          	beq	s0,a5,201072e2 <__metal_driver_riscv_cpu_controller_interrupt_register+0x3c>
201072ca:	02099663          	bnez	s3,201072f6 <__metal_driver_riscv_cpu_controller_interrupt_register+0x50>
201072ce:	479d                	li	a5,7
201072d0:	08f40463          	beq	s0,a5,20107358 <__metal_driver_riscv_cpu_controller_interrupt_register+0xb2>
201072d4:	0487c363          	blt	a5,s0,2010731a <__metal_driver_riscv_cpu_controller_interrupt_register+0x74>
201072d8:	478d                	li	a5,3
201072da:	06f40663          	beq	s0,a5,20107346 <__metal_driver_riscv_cpu_controller_interrupt_register+0xa0>
201072de:	57d1                	li	a5,-12
201072e0:	a02d                	j	2010730a <__metal_driver_riscv_cpu_controller_interrupt_register+0x64>
201072e2:	3fa5                	jal	2010725a <__metal_controller_interrupt_vector_mode>
201072e4:	57cd                	li	a5,-13
201072e6:	e115                	bnez	a0,2010730a <__metal_driver_riscv_cpu_controller_interrupt_register+0x64>
201072e8:	08098163          	beqz	s3,2010736a <__metal_driver_riscv_cpu_controller_interrupt_register+0xc4>
201072ec:	3934a823          	sw	s3,912(s1)
201072f0:	3924ac23          	sw	s2,920(s1)
201072f4:	a811                	j	20107308 <__metal_driver_riscv_cpu_controller_interrupt_register+0x62>
201072f6:	47e1                	li	a5,24
201072f8:	02f40433          	mul	s0,s0,a5
201072fc:	00848533          	add	a0,s1,s0
20107300:	09352823          	sw	s3,144(a0)
20107304:	09252c23          	sw	s2,152(a0)
20107308:	4781                	li	a5,0
2010730a:	40f2                	lw	ra,28(sp)
2010730c:	4462                	lw	s0,24(sp)
2010730e:	44d2                	lw	s1,20(sp)
20107310:	4942                	lw	s2,16(sp)
20107312:	49b2                	lw	s3,12(sp)
20107314:	853e                	mv	a0,a5
20107316:	6105                	add	sp,sp,32
20107318:	8082                	ret
2010731a:	47ad                	li	a5,11
2010731c:	00f40863          	beq	s0,a5,2010732c <__metal_driver_riscv_cpu_controller_interrupt_register+0x86>
20107320:	ff040713          	add	a4,s0,-16
20107324:	46bd                	li	a3,15
20107326:	57d1                	li	a5,-12
20107328:	fee6e1e3          	bltu	a3,a4,2010730a <__metal_driver_riscv_cpu_controller_interrupt_register+0x64>
2010732c:	47e1                	li	a5,24
2010732e:	02f40433          	mul	s0,s0,a5
20107332:	201077b7          	lui	a5,0x20107
20107336:	84c78793          	add	a5,a5,-1972 # 2010684c <__metal_default_interrupt_handler>
2010733a:	94a2                	add	s1,s1,s0
2010733c:	08f4a823          	sw	a5,144(s1)
20107340:	0924aa23          	sw	s2,148(s1)
20107344:	b7d1                	j	20107308 <__metal_driver_riscv_cpu_controller_interrupt_register+0x62>
20107346:	201067b7          	lui	a5,0x20106
2010734a:	56478793          	add	a5,a5,1380 # 20106564 <__metal_default_sw_handler>
2010734e:	0cf4ac23          	sw	a5,216(s1)
20107352:	0d24ae23          	sw	s2,220(s1)
20107356:	bf4d                	j	20107308 <__metal_driver_riscv_cpu_controller_interrupt_register+0x62>
20107358:	201077b7          	lui	a5,0x20107
2010735c:	92878793          	add	a5,a5,-1752 # 20106928 <__metal_default_timer_handler>
20107360:	12f4ac23          	sw	a5,312(s1)
20107364:	1324ae23          	sw	s2,316(s1)
20107368:	b745                	j	20107308 <__metal_driver_riscv_cpu_controller_interrupt_register+0x62>
2010736a:	201067b7          	lui	a5,0x20106
2010736e:	5a678793          	add	a5,a5,1446 # 201065a6 <__metal_default_beu_handler>
20107372:	38f4a823          	sw	a5,912(s1)
20107376:	bfad                	j	201072f0 <__metal_driver_riscv_cpu_controller_interrupt_register+0x4a>

20107378 <__metal_local_interrupt_enable>:
__metal_local_interrupt_enable():
20107378:	c911                	beqz	a0,2010738c <__metal_local_interrupt_enable+0x14>
2010737a:	479d                	li	a5,7
2010737c:	04f58563          	beq	a1,a5,201073c6 <__metal_local_interrupt_enable+0x4e>
20107380:	00b7e863          	bltu	a5,a1,20107390 <__metal_local_interrupt_enable+0x18>
20107384:	c58d                	beqz	a1,201073ae <__metal_local_interrupt_enable+0x36>
20107386:	478d                	li	a5,3
20107388:	02f58d63          	beq	a1,a5,201073c2 <__metal_local_interrupt_enable+0x4a>
2010738c:	567d                	li	a2,-1
2010738e:	a805                	j	201073be <__metal_local_interrupt_enable+0x46>
20107390:	47ad                	li	a5,11
20107392:	02f58d63          	beq	a1,a5,201073cc <__metal_local_interrupt_enable+0x54>
20107396:	ff058793          	add	a5,a1,-16
2010739a:	473d                	li	a4,15
2010739c:	fef768e3          	bltu	a4,a5,2010738c <__metal_local_interrupt_enable+0x14>
201073a0:	4785                	li	a5,1
201073a2:	00b797b3          	sll	a5,a5,a1
201073a6:	c61d                	beqz	a2,201073d4 <__metal_local_interrupt_enable+0x5c>
201073a8:	3047a7f3          	csrrs	a5,mie,a5
201073ac:	a029                	j	201073b6 <__metal_local_interrupt_enable+0x3e>
201073ae:	47a1                	li	a5,8
201073b0:	c609                	beqz	a2,201073ba <__metal_local_interrupt_enable+0x42>
201073b2:	3007a7f3          	csrrs	a5,mstatus,a5
201073b6:	4601                	li	a2,0
201073b8:	a019                	j	201073be <__metal_local_interrupt_enable+0x46>
201073ba:	3007b7f3          	csrrc	a5,mstatus,a5
201073be:	8532                	mv	a0,a2
201073c0:	8082                	ret
201073c2:	47a1                	li	a5,8
201073c4:	b7cd                	j	201073a6 <__metal_local_interrupt_enable+0x2e>
201073c6:	08000793          	li	a5,128
201073ca:	bff1                	j	201073a6 <__metal_local_interrupt_enable+0x2e>
201073cc:	6785                	lui	a5,0x1
201073ce:	80078793          	add	a5,a5,-2048 # 800 <__heap_size>
201073d2:	bfd1                	j	201073a6 <__metal_local_interrupt_enable+0x2e>
201073d4:	3047b7f3          	csrrc	a5,mie,a5
201073d8:	b7dd                	j	201073be <__metal_local_interrupt_enable+0x46>

201073da <__metal_driver_riscv_cpu_controller_interrupt_enable>:
__metal_driver_riscv_cpu_controller_interrupt_enable():
201073da:	4605                	li	a2,1
201073dc:	bf71                	j	20107378 <__metal_local_interrupt_enable>

201073de <__metal_driver_riscv_cpu_controller_interrupt_disable>:
__metal_driver_riscv_cpu_controller_interrupt_disable():
201073de:	4601                	li	a2,0
201073e0:	bf61                	j	20107378 <__metal_local_interrupt_enable>

201073e2 <__metal_exception_register>:
__metal_exception_register():
201073e2:	472d                	li	a4,11
201073e4:	87aa                	mv	a5,a0
201073e6:	557d                	li	a0,-1
201073e8:	00b74a63          	blt	a4,a1,201073fc <__metal_exception_register+0x1a>
201073ec:	ca01                	beqz	a2,201073fc <__metal_exception_register+0x1a>
201073ee:	0e858593          	add	a1,a1,232
201073f2:	058a                	sll	a1,a1,0x2
201073f4:	97ae                	add	a5,a5,a1
201073f6:	c390                	sw	a2,0(a5)
201073f8:	4501                	li	a0,0
201073fa:	8082                	ret
201073fc:	8082                	ret

201073fe <__metal_driver_cpu_exception_register>:
__metal_driver_cpu_exception_register():
201073fe:	81c18793          	add	a5,gp,-2020 # 80000a9c <__metal_dt_cpu_0>
20107402:	00a79763          	bne	a5,a0,20107410 <__metal_driver_cpu_exception_register+0x12>
20107406:	80000537          	lui	a0,0x80000
2010740a:	68850513          	add	a0,a0,1672 # 80000688 <__metal_dt_cpu_0_interrupt_controller>
2010740e:	bfd1                	j	201073e2 <__metal_exception_register>
20107410:	557d                	li	a0,-1
20107412:	8082                	ret

20107414 <__metal_driver_riscv_plic0_set_priority>:
__metal_driver_riscv_plic0_set_priority():
20107414:	800007b7          	lui	a5,0x80000
20107418:	0b078793          	add	a5,a5,176 # 800000b0 <__metal_dt_interrupt_controller_c000000>
2010741c:	00a79d63          	bne	a5,a0,20107436 <__metal_driver_riscv_plic0_set_priority+0x22>
20107420:	4799                	li	a5,6
20107422:	557d                	li	a0,-1
20107424:	00c7ea63          	bltu	a5,a2,20107438 <__metal_driver_riscv_plic0_set_priority+0x24>
20107428:	0c0007b7          	lui	a5,0xc000
2010742c:	058a                	sll	a1,a1,0x2
2010742e:	95be                	add	a1,a1,a5
20107430:	c190                	sw	a2,0(a1)
20107432:	4501                	li	a0,0
20107434:	8082                	ret
20107436:	557d                	li	a0,-1
20107438:	8082                	ret

2010743a <__metal_driver_riscv_plic0_get_priority>:
__metal_driver_riscv_plic0_get_priority():
2010743a:	800007b7          	lui	a5,0x80000
2010743e:	0b078793          	add	a5,a5,176 # 800000b0 <__metal_dt_interrupt_controller_c000000>
20107442:	00a79863          	bne	a5,a0,20107452 <__metal_driver_riscv_plic0_get_priority+0x18>
20107446:	0c0007b7          	lui	a5,0xc000
2010744a:	058a                	sll	a1,a1,0x2
2010744c:	95be                	add	a1,a1,a5
2010744e:	4188                	lw	a0,0(a1)
20107450:	8082                	ret
20107452:	4781                	li	a5,0
20107454:	bfdd                	j	2010744a <__metal_driver_riscv_plic0_get_priority+0x10>

20107456 <__metal_driver_riscv_plic0_register>:
__metal_driver_riscv_plic0_register():
20107456:	1101                	add	sp,sp,-32
20107458:	800007b7          	lui	a5,0x80000
2010745c:	cc22                	sw	s0,24(sp)
2010745e:	ca26                	sw	s1,20(sp)
20107460:	c64e                	sw	s3,12(sp)
20107462:	c452                	sw	s4,8(sp)
20107464:	ce06                	sw	ra,28(sp)
20107466:	c84a                	sw	s2,16(sp)
20107468:	0b078793          	add	a5,a5,176 # 800000b0 <__metal_dt_interrupt_controller_c000000>
2010746c:	842a                	mv	s0,a0
2010746e:	84ae                	mv	s1,a1
20107470:	8a32                	mv	s4,a2
20107472:	89b6                	mv	s3,a3
20107474:	03500713          	li	a4,53
20107478:	00f50363          	beq	a0,a5,2010747e <__metal_driver_riscv_plic0_register+0x28>
2010747c:	4701                	li	a4,0
2010747e:	557d                	li	a0,-1
20107480:	02e4d463          	bge	s1,a4,201074a8 <__metal_driver_riscv_plic0_register+0x52>
20107484:	00249913          	sll	s2,s1,0x2
20107488:	020a0863          	beqz	s4,201074b8 <__metal_driver_riscv_plic0_register+0x62>
2010748c:	85a6                	mv	a1,s1
2010748e:	8522                	mv	a0,s0
20107490:	4609                	li	a2,2
20107492:	3749                	jal	20107414 <__metal_driver_riscv_plic0_set_priority>
20107494:	47e1                	li	a5,24
20107496:	02f484b3          	mul	s1,s1,a5
2010749a:	9922                	add	s2,s2,s0
2010749c:	01492423          	sw	s4,8(s2)
201074a0:	9426                	add	s0,s0,s1
201074a2:	0f342823          	sw	s3,240(s0)
201074a6:	4501                	li	a0,0
201074a8:	40f2                	lw	ra,28(sp)
201074aa:	4462                	lw	s0,24(sp)
201074ac:	44d2                	lw	s1,20(sp)
201074ae:	4942                	lw	s2,16(sp)
201074b0:	49b2                	lw	s3,12(sp)
201074b2:	4a22                	lw	s4,8(sp)
201074b4:	6105                	add	sp,sp,32
201074b6:	8082                	ret
201074b8:	85a6                	mv	a1,s1
201074ba:	8522                	mv	a0,s0
201074bc:	4605                	li	a2,1
201074be:	3f99                	jal	20107414 <__metal_driver_riscv_plic0_set_priority>
201074c0:	201077b7          	lui	a5,0x20107
201074c4:	9922                	add	s2,s2,s0
201074c6:	4dc78793          	add	a5,a5,1244 # 201074dc <__metal_plic0_default_handler>
201074ca:	00f92423          	sw	a5,8(s2)
201074ce:	47e1                	li	a5,24
201074d0:	02f484b3          	mul	s1,s1,a5
201074d4:	9426                	add	s0,s0,s1
201074d6:	0f342623          	sw	s3,236(s0)
201074da:	b7f1                	j	201074a6 <__metal_driver_riscv_plic0_register+0x50>

201074dc <__metal_plic0_default_handler>:
__metal_plic0_default_handler():
201074dc:	1141                	add	sp,sp,-16
201074de:	12c00513          	li	a0,300
201074e2:	c606                	sw	ra,12(sp)
201074e4:	709000ef          	jal	201083ec <metal_shutdown>

201074e8 <__metal_plic0_claim_interrupt>:
__metal_plic0_claim_interrupt():
201074e8:	800007b7          	lui	a5,0x80000
201074ec:	0b078793          	add	a5,a5,176 # 800000b0 <__metal_dt_interrupt_controller_c000000>
201074f0:	0c000737          	lui	a4,0xc000
201074f4:	00a78363          	beq	a5,a0,201074fa <__metal_plic0_claim_interrupt+0x12>
201074f8:	4701                	li	a4,0
201074fa:	002007b7          	lui	a5,0x200
201074fe:	0791                	add	a5,a5,4 # 200004 <__heap_size+0x1ff804>
20107500:	05b2                	sll	a1,a1,0xc
20107502:	95be                	add	a1,a1,a5
20107504:	95ba                	add	a1,a1,a4
20107506:	4188                	lw	a0,0(a1)
20107508:	8082                	ret

2010750a <__metal_plic0_complete_interrupt>:
__metal_plic0_complete_interrupt():
2010750a:	800007b7          	lui	a5,0x80000
2010750e:	0b078793          	add	a5,a5,176 # 800000b0 <__metal_dt_interrupt_controller_c000000>
20107512:	4701                	li	a4,0
20107514:	00a79463          	bne	a5,a0,2010751c <__metal_plic0_complete_interrupt+0x12>
20107518:	0c000737          	lui	a4,0xc000
2010751c:	002007b7          	lui	a5,0x200
20107520:	05b2                	sll	a1,a1,0xc
20107522:	0791                	add	a5,a5,4 # 200004 <__heap_size+0x1ff804>
20107524:	95be                	add	a1,a1,a5
20107526:	95ba                	add	a1,a1,a4
20107528:	c190                	sw	a2,0(a1)
2010752a:	8082                	ret

2010752c <__metal_plic0_handler>:
__metal_plic0_handler():
2010752c:	1101                	add	sp,sp,-32
2010752e:	ce06                	sw	ra,28(sp)
20107530:	cc22                	sw	s0,24(sp)
20107532:	ca26                	sw	s1,20(sp)
20107534:	842e                	mv	s0,a1
20107536:	c18ff0ef          	jal	2010694e <__metal_myhart_id>
2010753a:	00a034b3          	snez	s1,a0
2010753e:	409004b3          	neg	s1,s1
20107542:	85a6                	mv	a1,s1
20107544:	8522                	mv	a0,s0
20107546:	374d                	jal	201074e8 <__metal_plic0_claim_interrupt>
20107548:	800007b7          	lui	a5,0x80000
2010754c:	0b078793          	add	a5,a5,176 # 800000b0 <__metal_dt_interrupt_controller_c000000>
20107550:	862a                	mv	a2,a0
20107552:	02f41463          	bne	s0,a5,2010757a <__metal_plic0_handler+0x4e>
20107556:	03400793          	li	a5,52
2010755a:	02a7e063          	bltu	a5,a0,2010757a <__metal_plic0_handler+0x4e>
2010755e:	00251793          	sll	a5,a0,0x2
20107562:	97a2                	add	a5,a5,s0
20107564:	4798                	lw	a4,8(a5)
20107566:	cb11                	beqz	a4,2010757a <__metal_plic0_handler+0x4e>
20107568:	47e1                	li	a5,24
2010756a:	02f507b3          	mul	a5,a0,a5
2010756e:	c62a                	sw	a0,12(sp)
20107570:	97a2                	add	a5,a5,s0
20107572:	0f07a583          	lw	a1,240(a5)
20107576:	9702                	jalr	a4
20107578:	4632                	lw	a2,12(sp)
2010757a:	8522                	mv	a0,s0
2010757c:	4462                	lw	s0,24(sp)
2010757e:	40f2                	lw	ra,28(sp)
20107580:	85a6                	mv	a1,s1
20107582:	44d2                	lw	s1,20(sp)
20107584:	6105                	add	sp,sp,32
20107586:	b751                	j	2010750a <__metal_plic0_complete_interrupt>

20107588 <__metal_plic0_set_threshold>:
__metal_plic0_set_threshold():
20107588:	800007b7          	lui	a5,0x80000
2010758c:	0b078793          	add	a5,a5,176 # 800000b0 <__metal_dt_interrupt_controller_c000000>
20107590:	4701                	li	a4,0
20107592:	00a79463          	bne	a5,a0,2010759a <__metal_plic0_set_threshold+0x12>
20107596:	0c000737          	lui	a4,0xc000
2010759a:	002007b7          	lui	a5,0x200
2010759e:	05b2                	sll	a1,a1,0xc
201075a0:	95be                	add	a1,a1,a5
201075a2:	95ba                	add	a1,a1,a4
201075a4:	c190                	sw	a2,0(a1)
201075a6:	4501                	li	a0,0
201075a8:	8082                	ret

201075aa <__metal_driver_riscv_plic0_set_threshold>:
__metal_driver_riscv_plic0_set_threshold():
201075aa:	1101                	add	sp,sp,-32
201075ac:	cc22                	sw	s0,24(sp)
201075ae:	ce06                	sw	ra,28(sp)
201075b0:	842a                	mv	s0,a0
201075b2:	c62e                	sw	a1,12(sp)
201075b4:	b9aff0ef          	jal	2010694e <__metal_myhart_id>
201075b8:	85aa                	mv	a1,a0
201075ba:	8522                	mv	a0,s0
201075bc:	4462                	lw	s0,24(sp)
201075be:	4632                	lw	a2,12(sp)
201075c0:	40f2                	lw	ra,28(sp)
201075c2:	6105                	add	sp,sp,32
201075c4:	b7d1                	j	20107588 <__metal_plic0_set_threshold>

201075c6 <__metal_driver_riscv_plic0_affinity_set_threshold>:
__metal_driver_riscv_plic0_affinity_set_threshold():
201075c6:	1101                	add	sp,sp,-32
201075c8:	cc22                	sw	s0,24(sp)
201075ca:	ce06                	sw	ra,28(sp)
201075cc:	ca26                	sw	s1,20(sp)
201075ce:	c84a                	sw	s2,16(sp)
201075d0:	c64e                	sw	s3,12(sp)
201075d2:	c452                	sw	s4,8(sp)
201075d4:	842e                	mv	s0,a1
201075d6:	e98d                	bnez	a1,20107608 <__metal_driver_riscv_plic0_affinity_set_threshold+0x42>
201075d8:	40f2                	lw	ra,28(sp)
201075da:	8522                	mv	a0,s0
201075dc:	4462                	lw	s0,24(sp)
201075de:	44d2                	lw	s1,20(sp)
201075e0:	4942                	lw	s2,16(sp)
201075e2:	49b2                	lw	s3,12(sp)
201075e4:	4a22                	lw	s4,8(sp)
201075e6:	6105                	add	sp,sp,32
201075e8:	8082                	ret
201075ea:	0485                	add	s1,s1,1
201075ec:	8652                	mv	a2,s4
201075ee:	85a6                	mv	a1,s1
201075f0:	854e                	mv	a0,s3
201075f2:	3f59                	jal	20107588 <__metal_plic0_set_threshold>
201075f4:	00157793          	and	a5,a0,1
201075f8:	009797b3          	sll	a5,a5,s1
201075fc:	00f96933          	or	s2,s2,a5
20107600:	8005                	srl	s0,s0,0x1
20107602:	f465                	bnez	s0,201075ea <__metal_driver_riscv_plic0_affinity_set_threshold+0x24>
20107604:	844a                	mv	s0,s2
20107606:	bfc9                	j	201075d8 <__metal_driver_riscv_plic0_affinity_set_threshold+0x12>
20107608:	89aa                	mv	s3,a0
2010760a:	8a32                	mv	s4,a2
2010760c:	4481                	li	s1,0
2010760e:	4901                	li	s2,0
20107610:	bfc5                	j	20107600 <__metal_driver_riscv_plic0_affinity_set_threshold+0x3a>

20107612 <__metal_plic0_get_threshold>:
__metal_plic0_get_threshold():
20107612:	800007b7          	lui	a5,0x80000
20107616:	0b078793          	add	a5,a5,176 # 800000b0 <__metal_dt_interrupt_controller_c000000>
2010761a:	00a79b63          	bne	a5,a0,20107630 <__metal_plic0_get_threshold+0x1e>
2010761e:	0c0007b7          	lui	a5,0xc000
20107622:	00200737          	lui	a4,0x200
20107626:	05b2                	sll	a1,a1,0xc
20107628:	95ba                	add	a1,a1,a4
2010762a:	95be                	add	a1,a1,a5
2010762c:	4188                	lw	a0,0(a1)
2010762e:	8082                	ret
20107630:	4781                	li	a5,0
20107632:	bfc5                	j	20107622 <__metal_plic0_get_threshold+0x10>

20107634 <__metal_driver_riscv_plic0_get_threshold>:
__metal_driver_riscv_plic0_get_threshold():
20107634:	1141                	add	sp,sp,-16
20107636:	c422                	sw	s0,8(sp)
20107638:	c606                	sw	ra,12(sp)
2010763a:	842a                	mv	s0,a0
2010763c:	b12ff0ef          	jal	2010694e <__metal_myhart_id>
20107640:	85aa                	mv	a1,a0
20107642:	8522                	mv	a0,s0
20107644:	4422                	lw	s0,8(sp)
20107646:	40b2                	lw	ra,12(sp)
20107648:	0141                	add	sp,sp,16
2010764a:	b7e1                	j	20107612 <__metal_plic0_get_threshold>

2010764c <__metal_driver_riscv_plic0_affinity_get_threshold>:
__metal_driver_riscv_plic0_affinity_get_threshold():
2010764c:	1141                	add	sp,sp,-16
2010764e:	c606                	sw	ra,12(sp)
20107650:	37c9                	jal	20107612 <__metal_plic0_get_threshold>
20107652:	40b2                	lw	ra,12(sp)
20107654:	4501                	li	a0,0
20107656:	0141                	add	sp,sp,16
20107658:	8082                	ret

2010765a <__metal_plic0_enable>:
__metal_plic0_enable():
2010765a:	800007b7          	lui	a5,0x80000
2010765e:	0b078793          	add	a5,a5,176 # 800000b0 <__metal_dt_interrupt_controller_c000000>
20107662:	4701                	li	a4,0
20107664:	00a79463          	bne	a5,a0,2010766c <__metal_plic0_enable+0x12>
20107668:	0c000737          	lui	a4,0xc000
2010766c:	40565793          	sra	a5,a2,0x5
20107670:	059e                	sll	a1,a1,0x7
20107672:	078a                	sll	a5,a5,0x2
20107674:	97ae                	add	a5,a5,a1
20107676:	6589                	lui	a1,0x2
20107678:	97ae                	add	a5,a5,a1
2010767a:	97ba                	add	a5,a5,a4
2010767c:	438c                	lw	a1,0(a5)
2010767e:	4705                	li	a4,1
20107680:	00c71633          	sll	a2,a4,a2
20107684:	00b66733          	or	a4,a2,a1
20107688:	e689                	bnez	a3,20107692 <__metal_plic0_enable+0x38>
2010768a:	fff64613          	not	a2,a2
2010768e:	00b67733          	and	a4,a2,a1
20107692:	c398                	sw	a4,0(a5)
20107694:	4501                	li	a0,0
20107696:	8082                	ret

20107698 <__metal_driver_riscv_plic0_init>:
__metal_driver_riscv_plic0_init():
20107698:	7179                	add	sp,sp,-48
2010769a:	d226                	sw	s1,36(sp)
2010769c:	4144                	lw	s1,4(a0)
2010769e:	d606                	sw	ra,44(sp)
201076a0:	d422                	sw	s0,40(sp)
201076a2:	d04a                	sw	s2,32(sp)
201076a4:	ce4e                	sw	s3,28(sp)
201076a6:	cc52                	sw	s4,24(sp)
201076a8:	ca56                	sw	s5,20(sp)
201076aa:	c85a                	sw	s6,16(sp)
201076ac:	c65e                	sw	s7,12(sp)
201076ae:	c462                	sw	s8,8(sp)
201076b0:	c266                	sw	s9,4(sp)
201076b2:	c06a                	sw	s10,0(sp)
201076b4:	c4bd                	beqz	s1,20107722 <__metal_driver_riscv_plic0_init+0x8a>
201076b6:	50b2                	lw	ra,44(sp)
201076b8:	5422                	lw	s0,40(sp)
201076ba:	5492                	lw	s1,36(sp)
201076bc:	5902                	lw	s2,32(sp)
201076be:	49f2                	lw	s3,28(sp)
201076c0:	4a62                	lw	s4,24(sp)
201076c2:	4ad2                	lw	s5,20(sp)
201076c4:	4b42                	lw	s6,16(sp)
201076c6:	4bb2                	lw	s7,12(sp)
201076c8:	4c22                	lw	s8,8(sp)
201076ca:	4c92                	lw	s9,4(sp)
201076cc:	4d02                	lw	s10,0(sp)
201076ce:	6145                	add	sp,sp,48
201076d0:	8082                	ret
201076d2:	84e6                	mv	s1,s9
201076d4:	8a62                	mv	s4,s8
201076d6:	89de                	mv	s3,s7
201076d8:	09ac9063          	bne	s9,s10,20107758 <__metal_driver_riscv_plic0_init+0xc0>
201076dc:	4601                	li	a2,0
201076de:	4581                	li	a1,0
201076e0:	8522                	mv	a0,s0
201076e2:	355d                	jal	20107588 <__metal_plic0_set_threshold>
201076e4:	000aa783          	lw	a5,0(s5)
201076e8:	86a2                	mv	a3,s0
201076ea:	4601                	li	a2,0
201076ec:	4fdc                	lw	a5,28(a5)
201076ee:	45ad                	li	a1,11
201076f0:	68890513          	add	a0,s2,1672
201076f4:	9782                	jalr	a5
201076f6:	000aa783          	lw	a5,0(s5)
201076fa:	20107637          	lui	a2,0x20107
201076fe:	86a2                	mv	a3,s0
20107700:	4fdc                	lw	a5,28(a5)
20107702:	52c60613          	add	a2,a2,1324 # 2010752c <__metal_plic0_handler>
20107706:	45ad                	li	a1,11
20107708:	68890513          	add	a0,s2,1672
2010770c:	9782                	jalr	a5
2010770e:	000aa783          	lw	a5,0(s5)
20107712:	45ad                	li	a1,11
20107714:	68890513          	add	a0,s2,1672
20107718:	53dc                	lw	a5,36(a5)
2010771a:	9782                	jalr	a5
2010771c:	4785                	li	a5,1
2010771e:	c05c                	sw	a5,4(s0)
20107720:	bf59                	j	201076b6 <__metal_driver_riscv_plic0_init+0x1e>
20107722:	800007b7          	lui	a5,0x80000
20107726:	0b078793          	add	a5,a5,176 # 800000b0 <__metal_dt_interrupt_controller_c000000>
2010772a:	842a                	mv	s0,a0
2010772c:	4b01                	li	s6,0
2010772e:	00f51463          	bne	a0,a5,20107736 <__metal_driver_riscv_plic0_init+0x9e>
20107732:	03500b13          	li	s6,53
20107736:	80000937          	lui	s2,0x80000
2010773a:	68890793          	add	a5,s2,1672 # 80000688 <__metal_dt_cpu_0_interrupt_controller>
2010773e:	439c                	lw	a5,0(a5)
20107740:	68890513          	add	a0,s2,1672
20107744:	00840a13          	add	s4,s0,8
20107748:	439c                	lw	a5,0(a5)
2010774a:	0ec40993          	add	s3,s0,236
2010774e:	68890a93          	add	s5,s2,1672
20107752:	9782                	jalr	a5
20107754:	40000d13          	li	s10,1024
20107758:	4681                	li	a3,0
2010775a:	8626                	mv	a2,s1
2010775c:	4581                	li	a1,0
2010775e:	8522                	mv	a0,s0
20107760:	3ded                	jal	2010765a <__metal_plic0_enable>
20107762:	00148c93          	add	s9,s1,1
20107766:	004a0c13          	add	s8,s4,4
2010776a:	01898b93          	add	s7,s3,24
2010776e:	f764d2e3          	bge	s1,s6,201076d2 <__metal_driver_riscv_plic0_init+0x3a>
20107772:	85a6                	mv	a1,s1
20107774:	4601                	li	a2,0
20107776:	8522                	mv	a0,s0
20107778:	c9dff0ef          	jal	20107414 <__metal_driver_riscv_plic0_set_priority>
2010777c:	000a2023          	sw	zero,0(s4)
20107780:	0009a023          	sw	zero,0(s3)
20107784:	0009a223          	sw	zero,4(s3)
20107788:	84e6                	mv	s1,s9
2010778a:	8a62                	mv	s4,s8
2010778c:	89de                	mv	s3,s7
2010778e:	b7e9                	j	20107758 <__metal_driver_riscv_plic0_init+0xc0>

20107790 <__metal_driver_riscv_plic0_enable>:
__metal_driver_riscv_plic0_enable():
20107790:	1101                	add	sp,sp,-32
20107792:	800007b7          	lui	a5,0x80000
20107796:	cc22                	sw	s0,24(sp)
20107798:	ce06                	sw	ra,28(sp)
2010779a:	0b078793          	add	a5,a5,176 # 800000b0 <__metal_dt_interrupt_controller_c000000>
2010779e:	842a                	mv	s0,a0
201077a0:	862e                	mv	a2,a1
201077a2:	03500713          	li	a4,53
201077a6:	00f50363          	beq	a0,a5,201077ac <__metal_driver_riscv_plic0_enable+0x1c>
201077aa:	4701                	li	a4,0
201077ac:	c632                	sw	a2,12(sp)
201077ae:	557d                	li	a0,-1
201077b0:	00e65a63          	bge	a2,a4,201077c4 <__metal_driver_riscv_plic0_enable+0x34>
201077b4:	99aff0ef          	jal	2010694e <__metal_myhart_id>
201077b8:	4632                	lw	a2,12(sp)
201077ba:	85aa                	mv	a1,a0
201077bc:	4685                	li	a3,1
201077be:	8522                	mv	a0,s0
201077c0:	3d69                	jal	2010765a <__metal_plic0_enable>
201077c2:	4501                	li	a0,0
201077c4:	40f2                	lw	ra,28(sp)
201077c6:	4462                	lw	s0,24(sp)
201077c8:	6105                	add	sp,sp,32
201077ca:	8082                	ret

201077cc <__metal_driver_riscv_plic0_disable>:
__metal_driver_riscv_plic0_disable():
201077cc:	1101                	add	sp,sp,-32
201077ce:	800007b7          	lui	a5,0x80000
201077d2:	cc22                	sw	s0,24(sp)
201077d4:	ce06                	sw	ra,28(sp)
201077d6:	0b078793          	add	a5,a5,176 # 800000b0 <__metal_dt_interrupt_controller_c000000>
201077da:	842a                	mv	s0,a0
201077dc:	862e                	mv	a2,a1
201077de:	03500713          	li	a4,53
201077e2:	00f50363          	beq	a0,a5,201077e8 <__metal_driver_riscv_plic0_disable+0x1c>
201077e6:	4701                	li	a4,0
201077e8:	c632                	sw	a2,12(sp)
201077ea:	557d                	li	a0,-1
201077ec:	00e65a63          	bge	a2,a4,20107800 <__metal_driver_riscv_plic0_disable+0x34>
201077f0:	95eff0ef          	jal	2010694e <__metal_myhart_id>
201077f4:	4632                	lw	a2,12(sp)
201077f6:	85aa                	mv	a1,a0
201077f8:	4681                	li	a3,0
201077fa:	8522                	mv	a0,s0
201077fc:	3db9                	jal	2010765a <__metal_plic0_enable>
201077fe:	4501                	li	a0,0
20107800:	40f2                	lw	ra,28(sp)
20107802:	4462                	lw	s0,24(sp)
20107804:	6105                	add	sp,sp,32
20107806:	8082                	ret

20107808 <__metal_driver_riscv_plic0_affinity_enable>:
__metal_driver_riscv_plic0_affinity_enable():
20107808:	1101                	add	sp,sp,-32
2010780a:	800007b7          	lui	a5,0x80000
2010780e:	c84a                	sw	s2,16(sp)
20107810:	c64e                	sw	s3,12(sp)
20107812:	ce06                	sw	ra,28(sp)
20107814:	cc22                	sw	s0,24(sp)
20107816:	ca26                	sw	s1,20(sp)
20107818:	c452                	sw	s4,8(sp)
2010781a:	0b078793          	add	a5,a5,176 # 800000b0 <__metal_dt_interrupt_controller_c000000>
2010781e:	892a                	mv	s2,a0
20107820:	89b2                	mv	s3,a2
20107822:	03500713          	li	a4,53
20107826:	00f50363          	beq	a0,a5,2010782c <__metal_driver_riscv_plic0_affinity_enable+0x24>
2010782a:	4701                	li	a4,0
2010782c:	547d                	li	s0,-1
2010782e:	00e9d663          	bge	s3,a4,2010783a <__metal_driver_riscv_plic0_affinity_enable+0x32>
20107832:	842e                	mv	s0,a1
20107834:	4481                	li	s1,0
20107836:	4a01                	li	s4,0
20107838:	e595                	bnez	a1,20107864 <__metal_driver_riscv_plic0_affinity_enable+0x5c>
2010783a:	40f2                	lw	ra,28(sp)
2010783c:	8522                	mv	a0,s0
2010783e:	4462                	lw	s0,24(sp)
20107840:	44d2                	lw	s1,20(sp)
20107842:	4942                	lw	s2,16(sp)
20107844:	49b2                	lw	s3,12(sp)
20107846:	4a22                	lw	s4,8(sp)
20107848:	6105                	add	sp,sp,32
2010784a:	8082                	ret
2010784c:	0485                	add	s1,s1,1
2010784e:	4685                	li	a3,1
20107850:	864e                	mv	a2,s3
20107852:	85a6                	mv	a1,s1
20107854:	854a                	mv	a0,s2
20107856:	3511                	jal	2010765a <__metal_plic0_enable>
20107858:	00157793          	and	a5,a0,1
2010785c:	009797b3          	sll	a5,a5,s1
20107860:	00fa6a33          	or	s4,s4,a5
20107864:	8005                	srl	s0,s0,0x1
20107866:	f07d                	bnez	s0,2010784c <__metal_driver_riscv_plic0_affinity_enable+0x44>
20107868:	8452                	mv	s0,s4
2010786a:	bfc1                	j	2010783a <__metal_driver_riscv_plic0_affinity_enable+0x32>

2010786c <__metal_driver_riscv_plic0_affinity_disable>:
__metal_driver_riscv_plic0_affinity_disable():
2010786c:	1101                	add	sp,sp,-32
2010786e:	800007b7          	lui	a5,0x80000
20107872:	c84a                	sw	s2,16(sp)
20107874:	c64e                	sw	s3,12(sp)
20107876:	ce06                	sw	ra,28(sp)
20107878:	cc22                	sw	s0,24(sp)
2010787a:	ca26                	sw	s1,20(sp)
2010787c:	c452                	sw	s4,8(sp)
2010787e:	0b078793          	add	a5,a5,176 # 800000b0 <__metal_dt_interrupt_controller_c000000>
20107882:	892a                	mv	s2,a0
20107884:	89b2                	mv	s3,a2
20107886:	03500713          	li	a4,53
2010788a:	00f50363          	beq	a0,a5,20107890 <__metal_driver_riscv_plic0_affinity_disable+0x24>
2010788e:	4701                	li	a4,0
20107890:	547d                	li	s0,-1
20107892:	00e9d663          	bge	s3,a4,2010789e <__metal_driver_riscv_plic0_affinity_disable+0x32>
20107896:	842e                	mv	s0,a1
20107898:	4481                	li	s1,0
2010789a:	4a01                	li	s4,0
2010789c:	e595                	bnez	a1,201078c8 <__metal_driver_riscv_plic0_affinity_disable+0x5c>
2010789e:	40f2                	lw	ra,28(sp)
201078a0:	8522                	mv	a0,s0
201078a2:	4462                	lw	s0,24(sp)
201078a4:	44d2                	lw	s1,20(sp)
201078a6:	4942                	lw	s2,16(sp)
201078a8:	49b2                	lw	s3,12(sp)
201078aa:	4a22                	lw	s4,8(sp)
201078ac:	6105                	add	sp,sp,32
201078ae:	8082                	ret
201078b0:	0485                	add	s1,s1,1
201078b2:	4681                	li	a3,0
201078b4:	864e                	mv	a2,s3
201078b6:	85a6                	mv	a1,s1
201078b8:	854a                	mv	a0,s2
201078ba:	3345                	jal	2010765a <__metal_plic0_enable>
201078bc:	00157793          	and	a5,a0,1
201078c0:	009797b3          	sll	a5,a5,s1
201078c4:	00fa6a33          	or	s4,s4,a5
201078c8:	8005                	srl	s0,s0,0x1
201078ca:	f07d                	bnez	s0,201078b0 <__metal_driver_riscv_plic0_affinity_disable+0x44>
201078cc:	8452                	mv	s0,s4
201078ce:	bfc1                	j	2010789e <__metal_driver_riscv_plic0_affinity_disable+0x32>

201078d0 <__metal_driver_sifive_fe310_g000_hfrosc_get_rate_hz>:
__metal_driver_sifive_fe310_g000_hfrosc_get_rate_hz():
201078d0:	201057b7          	lui	a5,0x20105
201078d4:	aec7a783          	lw	a5,-1300(a5) # 20104aec <__metal_driver_vtable_sifive_fe310_g000_prci>
201078d8:	1141                	add	sp,sp,-16
201078da:	80001537          	lui	a0,0x80001
201078de:	c422                	sw	s0,8(sp)
201078e0:	c606                	sw	ra,12(sp)
201078e2:	4581                	li	a1,0
201078e4:	a8850513          	add	a0,a0,-1400 # 80000a88 <__metal_dt_prci_10008000>
201078e8:	9782                	jalr	a5
201078ea:	400007b7          	lui	a5,0x40000
201078ee:	8fe9                	and	a5,a5,a0
201078f0:	842a                	mv	s0,a0
201078f2:	557d                	li	a0,-1
201078f4:	cf91                	beqz	a5,20107910 <__metal_driver_sifive_fe310_g000_hfrosc_get_rate_hz+0x40>
201078f6:	00045d63          	bgez	s0,20107910 <__metal_driver_sifive_fe310_g000_hfrosc_get_rate_hz+0x40>
201078fa:	80001537          	lui	a0,0x80001
201078fe:	a6450513          	add	a0,a0,-1436 # 80000a64 <__metal_dt_clock_2>
20107902:	03f47413          	and	s0,s0,63
20107906:	2b5000ef          	jal	201083ba <metal_clock_get_rate_hz>
2010790a:	0405                	add	s0,s0,1
2010790c:	02855533          	divu	a0,a0,s0
20107910:	40b2                	lw	ra,12(sp)
20107912:	4422                	lw	s0,8(sp)
20107914:	0141                	add	sp,sp,16
20107916:	8082                	ret

20107918 <__metal_driver_sifive_fe310_g000_hfrosc_set_rate_hz>:
__metal_driver_sifive_fe310_g000_hfrosc_set_rate_hz():
20107918:	bf65                	j	201078d0 <__metal_driver_sifive_fe310_g000_hfrosc_get_rate_hz>

2010791a <__metal_driver_sifive_fe310_g000_hfxosc_get_rate_hz>:
__metal_driver_sifive_fe310_g000_hfxosc_get_rate_hz():
2010791a:	201057b7          	lui	a5,0x20105
2010791e:	aec7a783          	lw	a5,-1300(a5) # 20104aec <__metal_driver_vtable_sifive_fe310_g000_prci>
20107922:	1141                	add	sp,sp,-16
20107924:	80001537          	lui	a0,0x80001
20107928:	c606                	sw	ra,12(sp)
2010792a:	4591                	li	a1,4
2010792c:	a8850513          	add	a0,a0,-1400 # 80000a88 <__metal_dt_prci_10008000>
20107930:	9782                	jalr	a5
20107932:	400007b7          	lui	a5,0x40000
20107936:	8fe9                	and	a5,a5,a0
20107938:	cb99                	beqz	a5,2010794e <__metal_driver_sifive_fe310_g000_hfxosc_get_rate_hz+0x34>
2010793a:	00055a63          	bgez	a0,2010794e <__metal_driver_sifive_fe310_g000_hfxosc_get_rate_hz+0x34>
2010793e:	40b2                	lw	ra,12(sp)
20107940:	80001537          	lui	a0,0x80001
20107944:	a7050513          	add	a0,a0,-1424 # 80000a70 <__metal_dt_clock_0>
20107948:	0141                	add	sp,sp,16
2010794a:	2710006f          	j	201083ba <metal_clock_get_rate_hz>
2010794e:	40b2                	lw	ra,12(sp)
20107950:	557d                	li	a0,-1
20107952:	0141                	add	sp,sp,16
20107954:	8082                	ret

20107956 <__metal_driver_sifive_fe310_g000_hfxosc_set_rate_hz>:
__metal_driver_sifive_fe310_g000_hfxosc_set_rate_hz():
20107956:	b7d1                	j	2010791a <__metal_driver_sifive_fe310_g000_hfxosc_get_rate_hz>

20107958 <__metal_driver_sifive_fe310_g000_pll_init>:
__metal_driver_sifive_fe310_g000_pll_init():
20107958:	1141                	add	sp,sp,-16
2010795a:	c422                	sw	s0,8(sp)
2010795c:	842a                	mv	s0,a0
2010795e:	4148                	lw	a0,4(a0)
20107960:	c606                	sw	ra,12(sp)
20107962:	225000ef          	jal	20108386 <_metal_clock_call_all_callbacks>
20107966:	100087b7          	lui	a5,0x10008
2010796a:	4798                	lw	a4,8(a5)
2010796c:	66c1                	lui	a3,0x10
2010796e:	8f75                	and	a4,a4,a3
20107970:	c711                	beqz	a4,2010797c <__metal_driver_sifive_fe310_g000_pll_init+0x24>
20107972:	4798                	lw	a4,8(a5)
20107974:	76c1                	lui	a3,0xffff0
20107976:	16fd                	add	a3,a3,-1 # fffeffff <metal_segment_heap_target_end+0x7ffee88f>
20107978:	8f75                	and	a4,a4,a3
2010797a:	c798                	sw	a4,8(a5)
2010797c:	10008737          	lui	a4,0x10008
20107980:	471c                	lw	a5,8(a4)
20107982:	000206b7          	lui	a3,0x20
20107986:	00f425b7          	lui	a1,0xf42
2010798a:	8fd5                	or	a5,a5,a3
2010798c:	c71c                	sw	a5,8(a4)
2010798e:	401c                	lw	a5,0(s0)
20107990:	8522                	mv	a0,s0
20107992:	40058593          	add	a1,a1,1024 # f42400 <__heap_size+0xf41c00>
20107996:	43dc                	lw	a5,4(a5)
20107998:	9782                	jalr	a5
2010799a:	4408                	lw	a0,8(s0)
2010799c:	4422                	lw	s0,8(sp)
2010799e:	40b2                	lw	ra,12(sp)
201079a0:	0141                	add	sp,sp,16
201079a2:	1e50006f          	j	20108386 <_metal_clock_call_all_callbacks>

201079a6 <__metal_driver_sifive_fe310_g000_pll_get_rate_hz>:
__metal_driver_sifive_fe310_g000_pll_get_rate_hz():
201079a6:	1141                	add	sp,sp,-16
201079a8:	201057b7          	lui	a5,0x20105
201079ac:	c226                	sw	s1,4(sp)
201079ae:	aec7a483          	lw	s1,-1300(a5) # 20104aec <__metal_driver_vtable_sifive_fe310_g000_prci>
201079b2:	c04a                	sw	s2,0(sp)
201079b4:	80001937          	lui	s2,0x80001
201079b8:	c606                	sw	ra,12(sp)
201079ba:	c422                	sw	s0,8(sp)
201079bc:	45a1                	li	a1,8
201079be:	a8890513          	add	a0,s2,-1400 # 80000a88 <__metal_dt_prci_10008000>
201079c2:	9482                	jalr	s1
201079c4:	842a                	mv	s0,a0
201079c6:	45b1                	li	a1,12
201079c8:	a8890513          	add	a0,s2,-1400
201079cc:	9482                	jalr	s1
201079ce:	67c1                	lui	a5,0x10
201079d0:	8fe1                	and	a5,a5,s0
201079d2:	ef81                	bnez	a5,201079ea <__metal_driver_sifive_fe310_g000_pll_get_rate_hz+0x44>
201079d4:	4422                	lw	s0,8(sp)
201079d6:	40b2                	lw	ra,12(sp)
201079d8:	4492                	lw	s1,4(sp)
201079da:	4902                	lw	s2,0(sp)
201079dc:	80000537          	lui	a0,0x80000
201079e0:	08450513          	add	a0,a0,132 # 80000084 <__metal_dt_clock_3>
201079e4:	0141                	add	sp,sp,16
201079e6:	1d50006f          	j	201083ba <metal_clock_get_rate_hz>
201079ea:	000207b7          	lui	a5,0x20
201079ee:	8fe1                	and	a5,a5,s0
201079f0:	84aa                	mv	s1,a0
201079f2:	e7ad                	bnez	a5,20107a5c <__metal_driver_sifive_fe310_g000_pll_get_rate_hz+0xb6>
201079f4:	80000537          	lui	a0,0x80000
201079f8:	08450513          	add	a0,a0,132 # 80000084 <__metal_dt_clock_3>
201079fc:	1bf000ef          	jal	201083ba <metal_clock_get_rate_hz>
20107a00:	000407b7          	lui	a5,0x40
20107a04:	8fe1                	and	a5,a5,s0
20107a06:	e7a9                	bnez	a5,20107a50 <__metal_driver_sifive_fe310_g000_pll_get_rate_hz+0xaa>
20107a08:	00445793          	srl	a5,s0,0x4
20107a0c:	6685                	lui	a3,0x1
20107a0e:	c0068693          	add	a3,a3,-1024 # c00 <__heap_size+0x400>
20107a12:	03f7f793          	and	a5,a5,63
20107a16:	00747713          	and	a4,s0,7
20107a1a:	0785                	add	a5,a5,1 # 40001 <__heap_size+0x3f801>
20107a1c:	8c75                	and	s0,s0,a3
20107a1e:	3ff00693          	li	a3,1023
20107a22:	0705                	add	a4,a4,1 # 10008001 <__heap_size+0x10007801>
20107a24:	0786                	sll	a5,a5,0x1
20107a26:	0486d063          	bge	a3,s0,20107a66 <__metal_driver_sifive_fe310_g000_pll_get_rate_hz+0xc0>
20107a2a:	02e54533          	div	a0,a0,a4
20107a2e:	8029                	srl	s0,s0,0xa
20107a30:	4705                	li	a4,1
20107a32:	00871733          	sll	a4,a4,s0
20107a36:	02f507b3          	mul	a5,a0,a5
20107a3a:	02e7c533          	div	a0,a5,a4
20107a3e:	1004f793          	and	a5,s1,256
20107a42:	e799                	bnez	a5,20107a50 <__metal_driver_sifive_fe310_g000_pll_get_rate_hz+0xaa>
20107a44:	03f4f493          	and	s1,s1,63
20107a48:	0485                	add	s1,s1,1
20107a4a:	0486                	sll	s1,s1,0x1
20107a4c:	02955533          	divu	a0,a0,s1
20107a50:	40b2                	lw	ra,12(sp)
20107a52:	4422                	lw	s0,8(sp)
20107a54:	4492                	lw	s1,4(sp)
20107a56:	4902                	lw	s2,0(sp)
20107a58:	0141                	add	sp,sp,16
20107a5a:	8082                	ret
20107a5c:	80000537          	lui	a0,0x80000
20107a60:	07850513          	add	a0,a0,120 # 80000078 <__metal_dt_clock_1>
20107a64:	bf61                	j	201079fc <__metal_driver_sifive_fe310_g000_pll_get_rate_hz+0x56>
20107a66:	557d                	li	a0,-1
20107a68:	b7e5                	j	20107a50 <__metal_driver_sifive_fe310_g000_pll_get_rate_hz+0xaa>

20107a6a <__metal_driver_sifive_fe310_g000_pll_set_rate_hz>:
__metal_driver_sifive_fe310_g000_pll_set_rate_hz():
20107a6a:	100087b7          	lui	a5,0x10008
20107a6e:	4798                	lw	a4,8(a5)
20107a70:	7179                	add	sp,sp,-48
20107a72:	66c1                	lui	a3,0x10
20107a74:	d422                	sw	s0,40(sp)
20107a76:	d226                	sw	s1,36(sp)
20107a78:	d606                	sw	ra,44(sp)
20107a7a:	d04a                	sw	s2,32(sp)
20107a7c:	ce4e                	sw	s3,28(sp)
20107a7e:	8f75                	and	a4,a4,a3
20107a80:	842a                	mv	s0,a0
20107a82:	84ae                	mv	s1,a1
20107a84:	c711                	beqz	a4,20107a90 <__metal_driver_sifive_fe310_g000_pll_set_rate_hz+0x26>
20107a86:	4798                	lw	a4,8(a5)
20107a88:	76c1                	lui	a3,0xffff0
20107a8a:	16fd                	add	a3,a3,-1 # fffeffff <metal_segment_heap_target_end+0x7ffee88f>
20107a8c:	8f75                	and	a4,a4,a3
20107a8e:	c798                	sw	a4,8(a5)
20107a90:	100087b7          	lui	a5,0x10008
20107a94:	479c                	lw	a5,8(a5)
20107a96:	00020737          	lui	a4,0x20
20107a9a:	8ff9                	and	a5,a5,a4
20107a9c:	cf95                	beqz	a5,20107ad8 <__metal_driver_sifive_fe310_g000_pll_set_rate_hz+0x6e>
20107a9e:	80000537          	lui	a0,0x80000
20107aa2:	07850513          	add	a0,a0,120 # 80000078 <__metal_dt_clock_1>
20107aa6:	115000ef          	jal	201083ba <metal_clock_get_rate_hz>
20107aaa:	478d                	li	a5,3
20107aac:	02f507b3          	mul	a5,a0,a5
20107ab0:	4711                	li	a4,4
20107ab2:	02e7c7b3          	div	a5,a5,a4
20107ab6:	02f4c663          	blt	s1,a5,20107ae2 <__metal_driver_sifive_fe310_g000_pll_set_rate_hz+0x78>
20107aba:	4795                	li	a5,5
20107abc:	02f507b3          	mul	a5,a0,a5
20107ac0:	02e7c7b3          	div	a5,a5,a4
20107ac4:	0097cf63          	blt	a5,s1,20107ae2 <__metal_driver_sifive_fe310_g000_pll_set_rate_hz+0x78>
20107ac8:	10008737          	lui	a4,0x10008
20107acc:	471c                	lw	a5,8(a4)
20107ace:	000406b7          	lui	a3,0x40
20107ad2:	8fd5                	or	a5,a5,a3
20107ad4:	c71c                	sw	a5,8(a4)
20107ad6:	aa21                	j	20107bee <__metal_driver_sifive_fe310_g000_pll_set_rate_hz+0x184>
20107ad8:	80000537          	lui	a0,0x80000
20107adc:	08450513          	add	a0,a0,132 # 80000084 <__metal_dt_clock_3>
20107ae0:	b7d9                	j	20107aa6 <__metal_driver_sifive_fe310_g000_pll_set_rate_hz+0x3c>
20107ae2:	20104737          	lui	a4,0x20104
20107ae6:	800005b7          	lui	a1,0x80000
20107aea:	7f070713          	add	a4,a4,2032 # 201047f0 <pll_configs+0x860>
20107aee:	56fd                	li	a3,-1
20107af0:	15fd                	add	a1,a1,-1 # 7fffffff <metal_segment_data_source_start+0x5fef761f>
20107af2:	04300613          	li	a2,67
20107af6:	587d                	li	a6,-1
20107af8:	471c                	lw	a5,8(a4)
20107afa:	02f56963          	bltu	a0,a5,20107b2c <__metal_driver_sifive_fe310_g000_pll_set_rate_hz+0xc2>
20107afe:	475c                	lw	a5,12(a4)
20107b00:	02a7e663          	bltu	a5,a0,20107b2c <__metal_driver_sifive_fe310_g000_pll_set_rate_hz+0xc2>
20107b04:	431c                	lw	a5,0(a4)
20107b06:	00472883          	lw	a7,4(a4)
20107b0a:	02f507b3          	mul	a5,a0,a5
20107b0e:	0317d7b3          	divu	a5,a5,a7
20107b12:	01078d63          	beq	a5,a6,20107b2c <__metal_driver_sifive_fe310_g000_pll_set_rate_hz+0xc2>
20107b16:	8f85                	sub	a5,a5,s1
20107b18:	41f7d893          	sra	a7,a5,0x1f
20107b1c:	00f8c7b3          	xor	a5,a7,a5
20107b20:	411787b3          	sub	a5,a5,a7
20107b24:	00b7d463          	bge	a5,a1,20107b2c <__metal_driver_sifive_fe310_g000_pll_set_rate_hz+0xc2>
20107b28:	85be                	mv	a1,a5
20107b2a:	86b2                	mv	a3,a2
20107b2c:	167d                	add	a2,a2,-1
20107b2e:	1701                	add	a4,a4,-32
20107b30:	fd0614e3          	bne	a2,a6,20107af8 <__metal_driver_sifive_fe310_g000_pll_set_rate_hz+0x8e>
20107b34:	f8c68ae3          	beq	a3,a2,20107ac8 <__metal_driver_sifive_fe310_g000_pll_set_rate_hz+0x5e>
20107b38:	100087b7          	lui	a5,0x10008
20107b3c:	4798                	lw	a4,8(a5)
20107b3e:	0696                	sll	a3,a3,0x5
20107b40:	9b61                	and	a4,a4,-8
20107b42:	c798                	sw	a4,8(a5)
20107b44:	20104737          	lui	a4,0x20104
20107b48:	f9070713          	add	a4,a4,-112 # 20103f90 <pll_configs>
20107b4c:	9736                	add	a4,a4,a3
20107b4e:	4b14                	lw	a3,16(a4)
20107b50:	4790                	lw	a2,8(a5)
20107b52:	8a9d                	and	a3,a3,7
20107b54:	8ed1                	or	a3,a3,a2
20107b56:	c794                	sw	a3,8(a5)
20107b58:	4794                	lw	a3,8(a5)
20107b5a:	c0f6f693          	and	a3,a3,-1009
20107b5e:	c794                	sw	a3,8(a5)
20107b60:	4b54                	lw	a3,20(a4)
20107b62:	4790                	lw	a2,8(a5)
20107b64:	0692                	sll	a3,a3,0x4
20107b66:	3f06f693          	and	a3,a3,1008
20107b6a:	8ed1                	or	a3,a3,a2
20107b6c:	c794                	sw	a3,8(a5)
20107b6e:	4794                	lw	a3,8(a5)
20107b70:	767d                	lui	a2,0xfffff
20107b72:	3ff60613          	add	a2,a2,1023 # fffff3ff <metal_segment_heap_target_end+0x7fffdc8f>
20107b76:	8ef1                	and	a3,a3,a2
20107b78:	c794                	sw	a3,8(a5)
20107b7a:	4f14                	lw	a3,24(a4)
20107b7c:	478c                	lw	a1,8(a5)
20107b7e:	6605                	lui	a2,0x1
20107b80:	06aa                	sll	a3,a3,0xa
20107b82:	c0060613          	add	a2,a2,-1024 # c00 <__heap_size+0x400>
20107b86:	8ef1                	and	a3,a3,a2
20107b88:	4f58                	lw	a4,28(a4)
20107b8a:	8ecd                	or	a3,a3,a1
20107b8c:	c794                	sw	a3,8(a5)
20107b8e:	06075f63          	bgez	a4,20107c0c <__metal_driver_sifive_fe310_g000_pll_set_rate_hz+0x1a2>
20107b92:	47d8                	lw	a4,12(a5)
20107b94:	10076713          	or	a4,a4,256
20107b98:	c7d8                	sw	a4,12(a5)
20107b9a:	47d8                	lw	a4,12(a5)
20107b9c:	fc077713          	and	a4,a4,-64
20107ba0:	c7d8                	sw	a4,12(a5)
20107ba2:	47d8                	lw	a4,12(a5)
20107ba4:	00176713          	or	a4,a4,1
20107ba8:	c7d8                	sw	a4,12(a5)
20107baa:	100086b7          	lui	a3,0x10008
20107bae:	469c                	lw	a5,8(a3)
20107bb0:	fffc0737          	lui	a4,0xfffc0
20107bb4:	177d                	add	a4,a4,-1 # fffbffff <metal_segment_heap_target_end+0x7ffbe88f>
20107bb6:	8ff9                	and	a5,a5,a4
20107bb8:	c69c                	sw	a5,8(a3)
20107bba:	0030                	add	a2,sp,8
20107bbc:	4585                	li	a1,1
20107bbe:	82418513          	add	a0,gp,-2012 # 80000aa4 <__metal_dt_clint_2000000>
20107bc2:	8edfe0ef          	jal	201064ae <__metal_driver_riscv_clint0_command_request>
20107bc6:	44a2                	lw	s1,8(sp)
20107bc8:	47b2                	lw	a5,12(sp)
20107bca:	00448913          	add	s2,s1,4
20107bce:	009934b3          	sltu	s1,s2,s1
20107bd2:	94be                	add	s1,s1,a5
20107bd4:	47b2                	lw	a5,12(sp)
20107bd6:	00f4e763          	bltu	s1,a5,20107be4 <__metal_driver_sifive_fe310_g000_pll_set_rate_hz+0x17a>
20107bda:	04979663          	bne	a5,s1,20107c26 <__metal_driver_sifive_fe310_g000_pll_set_rate_hz+0x1bc>
20107bde:	47a2                	lw	a5,8(sp)
20107be0:	04f97363          	bgeu	s2,a5,20107c26 <__metal_driver_sifive_fe310_g000_pll_set_rate_hz+0x1bc>
20107be4:	10008737          	lui	a4,0x10008
20107be8:	471c                	lw	a5,8(a4)
20107bea:	fe07dfe3          	bgez	a5,20107be8 <__metal_driver_sifive_fe310_g000_pll_set_rate_hz+0x17e>
20107bee:	10008737          	lui	a4,0x10008
20107bf2:	471c                	lw	a5,8(a4)
20107bf4:	66c1                	lui	a3,0x10
20107bf6:	8522                	mv	a0,s0
20107bf8:	5422                	lw	s0,40(sp)
20107bfa:	50b2                	lw	ra,44(sp)
20107bfc:	5492                	lw	s1,36(sp)
20107bfe:	5902                	lw	s2,32(sp)
20107c00:	49f2                	lw	s3,28(sp)
20107c02:	8fd5                	or	a5,a5,a3
20107c04:	c71c                	sw	a5,8(a4)
20107c06:	6145                	add	sp,sp,48
20107c08:	d9fff06f          	j	201079a6 <__metal_driver_sifive_fe310_g000_pll_get_rate_hz>
20107c0c:	47d4                	lw	a3,12(a5)
20107c0e:	03f77713          	and	a4,a4,63
20107c12:	eff6f693          	and	a3,a3,-257
20107c16:	c7d4                	sw	a3,12(a5)
20107c18:	47d4                	lw	a3,12(a5)
20107c1a:	fc06f693          	and	a3,a3,-64
20107c1e:	c7d4                	sw	a3,12(a5)
20107c20:	47d4                	lw	a3,12(a5)
20107c22:	8f55                	or	a4,a4,a3
20107c24:	b751                	j	20107ba8 <__metal_driver_sifive_fe310_g000_pll_set_rate_hz+0x13e>
20107c26:	0030                	add	a2,sp,8
20107c28:	4585                	li	a1,1
20107c2a:	82418513          	add	a0,gp,-2012 # 80000aa4 <__metal_dt_clint_2000000>
20107c2e:	881fe0ef          	jal	201064ae <__metal_driver_riscv_clint0_command_request>
20107c32:	b74d                	j	20107bd4 <__metal_driver_sifive_fe310_g000_pll_set_rate_hz+0x16a>

20107c34 <__metal_driver_sifive_fe310_g000_prci_get_reg>:
__metal_driver_sifive_fe310_g000_prci_get_reg():
20107c34:	100087b7          	lui	a5,0x10008
20107c38:	95be                	add	a1,a1,a5
20107c3a:	4188                	lw	a0,0(a1)
20107c3c:	8082                	ret

20107c3e <__metal_driver_sifive_fe310_g000_prci_set_reg>:
__metal_driver_sifive_fe310_g000_prci_set_reg():
20107c3e:	100087b7          	lui	a5,0x10008
20107c42:	95be                	add	a1,a1,a5
20107c44:	8532                	mv	a0,a2
20107c46:	c190                	sw	a2,0(a1)
20107c48:	8082                	ret

20107c4a <__metal_driver_sifive_gpio_led_gpio>:
__metal_driver_sifive_gpio_led_gpio():
20107c4a:	81418713          	add	a4,gp,-2028 # 80000a94 <__metal_dt_led_0>
20107c4e:	87aa                	mv	a5,a0
20107c50:	00e50b63          	beq	a0,a4,20107c66 <__metal_driver_sifive_gpio_led_gpio+0x1c>
20107c54:	81018713          	add	a4,gp,-2032 # 80000a90 <__metal_dt_led_1>
20107c58:	00e50763          	beq	a0,a4,20107c66 <__metal_driver_sifive_gpio_led_gpio+0x1c>
20107c5c:	80c18713          	add	a4,gp,-2036 # 80000a8c <__metal_dt_led_2>
20107c60:	4501                	li	a0,0
20107c62:	00e79463          	bne	a5,a4,20107c6a <__metal_driver_sifive_gpio_led_gpio+0x20>
20107c66:	81818513          	add	a0,gp,-2024 # 80000a98 <__metal_dt_gpio_10012000>
20107c6a:	8082                	ret

20107c6c <__metal_driver_sifive_gpio_led_pin>:
__metal_driver_sifive_gpio_led_pin():
20107c6c:	81418713          	add	a4,gp,-2028 # 80000a94 <__metal_dt_led_0>
20107c70:	87aa                	mv	a5,a0
20107c72:	00e50e63          	beq	a0,a4,20107c8e <__metal_driver_sifive_gpio_led_pin+0x22>
20107c76:	81018713          	add	a4,gp,-2032 # 80000a90 <__metal_dt_led_1>
20107c7a:	454d                	li	a0,19
20107c7c:	00e78a63          	beq	a5,a4,20107c90 <__metal_driver_sifive_gpio_led_pin+0x24>
20107c80:	80c18713          	add	a4,gp,-2036 # 80000a8c <__metal_dt_led_2>
20107c84:	4501                	li	a0,0
20107c86:	00e79563          	bne	a5,a4,20107c90 <__metal_driver_sifive_gpio_led_pin+0x24>
20107c8a:	4555                	li	a0,21
20107c8c:	8082                	ret
20107c8e:	4559                	li	a0,22
20107c90:	8082                	ret

20107c92 <__metal_driver_led_exist>:
__metal_driver_led_exist():
20107c92:	1141                	add	sp,sp,-16
20107c94:	c606                	sw	ra,12(sp)
20107c96:	81418793          	add	a5,gp,-2028 # 80000a94 <__metal_dt_led_0>
20107c9a:	02f50563          	beq	a0,a5,20107cc4 <__metal_driver_led_exist+0x32>
20107c9e:	81018793          	add	a5,gp,-2032 # 80000a90 <__metal_dt_led_1>
20107ca2:	02f50663          	beq	a0,a5,20107cce <__metal_driver_led_exist+0x3c>
20107ca6:	80c18793          	add	a5,gp,-2036 # 80000a8c <__metal_dt_led_2>
20107caa:	02f51763          	bne	a0,a5,20107cd8 <__metal_driver_led_exist+0x46>
20107cae:	20101537          	lui	a0,0x20101
20107cb2:	81450513          	add	a0,a0,-2028 # 20100814 <metal_tty_init+0x516>
20107cb6:	20d000ef          	jal	201086c2 <strcmp>
20107cba:	40b2                	lw	ra,12(sp)
20107cbc:	00153513          	seqz	a0,a0
20107cc0:	0141                	add	sp,sp,16
20107cc2:	8082                	ret
20107cc4:	20101537          	lui	a0,0x20101
20107cc8:	80050513          	add	a0,a0,-2048 # 20100800 <metal_tty_init+0x502>
20107ccc:	b7ed                	j	20107cb6 <__metal_driver_led_exist+0x24>
20107cce:	20101537          	lui	a0,0x20101
20107cd2:	80850513          	add	a0,a0,-2040 # 20100808 <metal_tty_init+0x50a>
20107cd6:	b7c5                	j	20107cb6 <__metal_driver_led_exist+0x24>
20107cd8:	20100537          	lui	a0,0x20100
20107cdc:	77850513          	add	a0,a0,1912 # 20100778 <metal_tty_init+0x47a>
20107ce0:	bfd9                	j	20107cb6 <__metal_driver_led_exist+0x24>

20107ce2 <__metal_driver_led_toggle>:
__metal_driver_led_toggle():
20107ce2:	1141                	add	sp,sp,-16
20107ce4:	c226                	sw	s1,4(sp)
20107ce6:	c606                	sw	ra,12(sp)
20107ce8:	c422                	sw	s0,8(sp)
20107cea:	c04a                	sw	s2,0(sp)
20107cec:	84aa                	mv	s1,a0
20107cee:	3fb1                	jal	20107c4a <__metal_driver_sifive_gpio_led_gpio>
20107cf0:	c115                	beqz	a0,20107d14 <__metal_driver_led_toggle+0x32>
20107cf2:	411c                	lw	a5,0(a0)
20107cf4:	842a                	mv	s0,a0
20107cf6:	8526                	mv	a0,s1
20107cf8:	0207a903          	lw	s2,32(a5) # 10008020 <__heap_size+0x10007820>
20107cfc:	3f85                	jal	20107c6c <__metal_driver_sifive_gpio_led_pin>
20107cfe:	4585                	li	a1,1
20107d00:	00a595b3          	sll	a1,a1,a0
20107d04:	8522                	mv	a0,s0
20107d06:	4422                	lw	s0,8(sp)
20107d08:	40b2                	lw	ra,12(sp)
20107d0a:	4492                	lw	s1,4(sp)
20107d0c:	87ca                	mv	a5,s2
20107d0e:	4902                	lw	s2,0(sp)
20107d10:	0141                	add	sp,sp,16
20107d12:	8782                	jr	a5
20107d14:	40b2                	lw	ra,12(sp)
20107d16:	4422                	lw	s0,8(sp)
20107d18:	4492                	lw	s1,4(sp)
20107d1a:	4902                	lw	s2,0(sp)
20107d1c:	0141                	add	sp,sp,16
20107d1e:	8082                	ret

20107d20 <__metal_driver_led_enable>:
__metal_driver_led_enable():
20107d20:	1101                	add	sp,sp,-32
20107d22:	ca26                	sw	s1,20(sp)
20107d24:	ce06                	sw	ra,28(sp)
20107d26:	cc22                	sw	s0,24(sp)
20107d28:	c84a                	sw	s2,16(sp)
20107d2a:	84aa                	mv	s1,a0
20107d2c:	3f39                	jal	20107c4a <__metal_driver_sifive_gpio_led_gpio>
20107d2e:	c51d                	beqz	a0,20107d5c <__metal_driver_led_enable+0x3c>
20107d30:	411c                	lw	a5,0(a0)
20107d32:	842a                	mv	s0,a0
20107d34:	8526                	mv	a0,s1
20107d36:	0007a903          	lw	s2,0(a5)
20107d3a:	3f0d                	jal	20107c6c <__metal_driver_sifive_gpio_led_pin>
20107d3c:	4585                	li	a1,1
20107d3e:	00a595b3          	sll	a1,a1,a0
20107d42:	8522                	mv	a0,s0
20107d44:	c62e                	sw	a1,12(sp)
20107d46:	9902                	jalr	s2
20107d48:	401c                	lw	a5,0(s0)
20107d4a:	8522                	mv	a0,s0
20107d4c:	4462                	lw	s0,24(sp)
20107d4e:	45b2                	lw	a1,12(sp)
20107d50:	40f2                	lw	ra,28(sp)
20107d52:	44d2                	lw	s1,20(sp)
20107d54:	4942                	lw	s2,16(sp)
20107d56:	4bdc                	lw	a5,20(a5)
20107d58:	6105                	add	sp,sp,32
20107d5a:	8782                	jr	a5
20107d5c:	40f2                	lw	ra,28(sp)
20107d5e:	4462                	lw	s0,24(sp)
20107d60:	44d2                	lw	s1,20(sp)
20107d62:	4942                	lw	s2,16(sp)
20107d64:	6105                	add	sp,sp,32
20107d66:	8082                	ret

20107d68 <__metal_driver_led_off>:
__metal_driver_led_off():
20107d68:	1141                	add	sp,sp,-16
20107d6a:	c226                	sw	s1,4(sp)
20107d6c:	c606                	sw	ra,12(sp)
20107d6e:	c422                	sw	s0,8(sp)
20107d70:	c04a                	sw	s2,0(sp)
20107d72:	84aa                	mv	s1,a0
20107d74:	3dd9                	jal	20107c4a <__metal_driver_sifive_gpio_led_gpio>
20107d76:	c115                	beqz	a0,20107d9a <__metal_driver_led_off+0x32>
20107d78:	411c                	lw	a5,0(a0)
20107d7a:	842a                	mv	s0,a0
20107d7c:	8526                	mv	a0,s1
20107d7e:	01c7a903          	lw	s2,28(a5)
20107d82:	35ed                	jal	20107c6c <__metal_driver_sifive_gpio_led_pin>
20107d84:	4585                	li	a1,1
20107d86:	00a595b3          	sll	a1,a1,a0
20107d8a:	8522                	mv	a0,s0
20107d8c:	4422                	lw	s0,8(sp)
20107d8e:	40b2                	lw	ra,12(sp)
20107d90:	4492                	lw	s1,4(sp)
20107d92:	87ca                	mv	a5,s2
20107d94:	4902                	lw	s2,0(sp)
20107d96:	0141                	add	sp,sp,16
20107d98:	8782                	jr	a5
20107d9a:	40b2                	lw	ra,12(sp)
20107d9c:	4422                	lw	s0,8(sp)
20107d9e:	4492                	lw	s1,4(sp)
20107da0:	4902                	lw	s2,0(sp)
20107da2:	0141                	add	sp,sp,16
20107da4:	8082                	ret

20107da6 <__metal_driver_led_on>:
__metal_driver_led_on():
20107da6:	1141                	add	sp,sp,-16
20107da8:	c226                	sw	s1,4(sp)
20107daa:	c606                	sw	ra,12(sp)
20107dac:	c422                	sw	s0,8(sp)
20107dae:	c04a                	sw	s2,0(sp)
20107db0:	84aa                	mv	s1,a0
20107db2:	3d61                	jal	20107c4a <__metal_driver_sifive_gpio_led_gpio>
20107db4:	c115                	beqz	a0,20107dd8 <__metal_driver_led_on+0x32>
20107db6:	411c                	lw	a5,0(a0)
20107db8:	842a                	mv	s0,a0
20107dba:	8526                	mv	a0,s1
20107dbc:	0187a903          	lw	s2,24(a5)
20107dc0:	3575                	jal	20107c6c <__metal_driver_sifive_gpio_led_pin>
20107dc2:	4585                	li	a1,1
20107dc4:	00a595b3          	sll	a1,a1,a0
20107dc8:	8522                	mv	a0,s0
20107dca:	4422                	lw	s0,8(sp)
20107dcc:	40b2                	lw	ra,12(sp)
20107dce:	4492                	lw	s1,4(sp)
20107dd0:	87ca                	mv	a5,s2
20107dd2:	4902                	lw	s2,0(sp)
20107dd4:	0141                	add	sp,sp,16
20107dd6:	8782                	jr	a5
20107dd8:	40b2                	lw	ra,12(sp)
20107dda:	4422                	lw	s0,8(sp)
20107ddc:	4492                	lw	s1,4(sp)
20107dde:	4902                	lw	s2,0(sp)
20107de0:	0141                	add	sp,sp,16
20107de2:	8082                	ret

20107de4 <__metal_driver_sifive_gpio0_enable_input>:
__metal_driver_sifive_gpio0_enable_input():
20107de4:	81818713          	add	a4,gp,-2024 # 80000a98 <__metal_dt_gpio_10012000>
20107de8:	4781                	li	a5,0
20107dea:	00a71463          	bne	a4,a0,20107df2 <__metal_driver_sifive_gpio0_enable_input+0xe>
20107dee:	100127b7          	lui	a5,0x10012
20107df2:	43d8                	lw	a4,4(a5)
20107df4:	4501                	li	a0,0
20107df6:	8dd9                	or	a1,a1,a4
20107df8:	c3cc                	sw	a1,4(a5)
20107dfa:	8082                	ret

20107dfc <__metal_driver_sifive_gpio0_disable_input>:
__metal_driver_sifive_gpio0_disable_input():
20107dfc:	81818713          	add	a4,gp,-2024 # 80000a98 <__metal_dt_gpio_10012000>
20107e00:	4781                	li	a5,0
20107e02:	00a71463          	bne	a4,a0,20107e0a <__metal_driver_sifive_gpio0_disable_input+0xe>
20107e06:	100127b7          	lui	a5,0x10012
20107e0a:	43d8                	lw	a4,4(a5)
20107e0c:	fff5c593          	not	a1,a1
20107e10:	4501                	li	a0,0
20107e12:	8df9                	and	a1,a1,a4
20107e14:	c3cc                	sw	a1,4(a5)
20107e16:	8082                	ret

20107e18 <__metal_driver_sifive_gpio0_input>:
__metal_driver_sifive_gpio0_input():
20107e18:	81818793          	add	a5,gp,-2024 # 80000a98 <__metal_dt_gpio_10012000>
20107e1c:	00a79663          	bne	a5,a0,20107e28 <__metal_driver_sifive_gpio0_input+0x10>
20107e20:	100127b7          	lui	a5,0x10012
20107e24:	4388                	lw	a0,0(a5)
20107e26:	8082                	ret
20107e28:	4781                	li	a5,0
20107e2a:	bfed                	j	20107e24 <__metal_driver_sifive_gpio0_input+0xc>

20107e2c <__metal_driver_sifive_gpio0_output>:
__metal_driver_sifive_gpio0_output():
20107e2c:	81818793          	add	a5,gp,-2024 # 80000a98 <__metal_dt_gpio_10012000>
20107e30:	00a79663          	bne	a5,a0,20107e3c <__metal_driver_sifive_gpio0_output+0x10>
20107e34:	100127b7          	lui	a5,0x10012
20107e38:	47c8                	lw	a0,12(a5)
20107e3a:	8082                	ret
20107e3c:	4781                	li	a5,0
20107e3e:	bfed                	j	20107e38 <__metal_driver_sifive_gpio0_output+0xc>

20107e40 <__metal_driver_sifive_gpio0_disable_output>:
__metal_driver_sifive_gpio0_disable_output():
20107e40:	81818713          	add	a4,gp,-2024 # 80000a98 <__metal_dt_gpio_10012000>
20107e44:	4781                	li	a5,0
20107e46:	00a71463          	bne	a4,a0,20107e4e <__metal_driver_sifive_gpio0_disable_output+0xe>
20107e4a:	100127b7          	lui	a5,0x10012
20107e4e:	4798                	lw	a4,8(a5)
20107e50:	fff5c593          	not	a1,a1
20107e54:	4501                	li	a0,0
20107e56:	8df9                	and	a1,a1,a4
20107e58:	c78c                	sw	a1,8(a5)
20107e5a:	8082                	ret

20107e5c <__metal_driver_sifive_gpio0_enable_output>:
__metal_driver_sifive_gpio0_enable_output():
20107e5c:	81818713          	add	a4,gp,-2024 # 80000a98 <__metal_dt_gpio_10012000>
20107e60:	4781                	li	a5,0
20107e62:	00a71463          	bne	a4,a0,20107e6a <__metal_driver_sifive_gpio0_enable_output+0xe>
20107e66:	100127b7          	lui	a5,0x10012
20107e6a:	4798                	lw	a4,8(a5)
20107e6c:	4501                	li	a0,0
20107e6e:	8dd9                	or	a1,a1,a4
20107e70:	c78c                	sw	a1,8(a5)
20107e72:	8082                	ret

20107e74 <__metal_driver_sifive_gpio0_output_set>:
__metal_driver_sifive_gpio0_output_set():
20107e74:	81818713          	add	a4,gp,-2024 # 80000a98 <__metal_dt_gpio_10012000>
20107e78:	4781                	li	a5,0
20107e7a:	00a71463          	bne	a4,a0,20107e82 <__metal_driver_sifive_gpio0_output_set+0xe>
20107e7e:	100127b7          	lui	a5,0x10012
20107e82:	47d8                	lw	a4,12(a5)
20107e84:	4501                	li	a0,0
20107e86:	8dd9                	or	a1,a1,a4
20107e88:	c7cc                	sw	a1,12(a5)
20107e8a:	8082                	ret

20107e8c <__metal_driver_sifive_gpio0_output_clear>:
__metal_driver_sifive_gpio0_output_clear():
20107e8c:	81818713          	add	a4,gp,-2024 # 80000a98 <__metal_dt_gpio_10012000>
20107e90:	4781                	li	a5,0
20107e92:	00a71463          	bne	a4,a0,20107e9a <__metal_driver_sifive_gpio0_output_clear+0xe>
20107e96:	100127b7          	lui	a5,0x10012
20107e9a:	47d8                	lw	a4,12(a5)
20107e9c:	fff5c593          	not	a1,a1
20107ea0:	4501                	li	a0,0
20107ea2:	8df9                	and	a1,a1,a4
20107ea4:	c7cc                	sw	a1,12(a5)
20107ea6:	8082                	ret

20107ea8 <__metal_driver_sifive_gpio0_output_toggle>:
__metal_driver_sifive_gpio0_output_toggle():
20107ea8:	81818713          	add	a4,gp,-2024 # 80000a98 <__metal_dt_gpio_10012000>
20107eac:	4781                	li	a5,0
20107eae:	00a71463          	bne	a4,a0,20107eb6 <__metal_driver_sifive_gpio0_output_toggle+0xe>
20107eb2:	100127b7          	lui	a5,0x10012
20107eb6:	47d8                	lw	a4,12(a5)
20107eb8:	4501                	li	a0,0
20107eba:	8db9                	xor	a1,a1,a4
20107ebc:	c7cc                	sw	a1,12(a5)
20107ebe:	8082                	ret

20107ec0 <__metal_driver_sifive_gpio0_enable_io>:
__metal_driver_sifive_gpio0_enable_io():
20107ec0:	81818713          	add	a4,gp,-2024 # 80000a98 <__metal_dt_gpio_10012000>
20107ec4:	4781                	li	a5,0
20107ec6:	00a71463          	bne	a4,a0,20107ece <__metal_driver_sifive_gpio0_enable_io+0xe>
20107eca:	100127b7          	lui	a5,0x10012
20107ece:	5fd8                	lw	a4,60(a5)
20107ed0:	4501                	li	a0,0
20107ed2:	8dd9                	or	a1,a1,a4
20107ed4:	dfcc                	sw	a1,60(a5)
20107ed6:	5f98                	lw	a4,56(a5)
20107ed8:	8e59                	or	a2,a2,a4
20107eda:	df90                	sw	a2,56(a5)
20107edc:	8082                	ret

20107ede <__metal_driver_sifive_gpio0_disable_io>:
__metal_driver_sifive_gpio0_disable_io():
20107ede:	81818713          	add	a4,gp,-2024 # 80000a98 <__metal_dt_gpio_10012000>
20107ee2:	4781                	li	a5,0
20107ee4:	00a71463          	bne	a4,a0,20107eec <__metal_driver_sifive_gpio0_disable_io+0xe>
20107ee8:	100127b7          	lui	a5,0x10012
20107eec:	5f98                	lw	a4,56(a5)
20107eee:	fff5c593          	not	a1,a1
20107ef2:	4501                	li	a0,0
20107ef4:	8df9                	and	a1,a1,a4
20107ef6:	df8c                	sw	a1,56(a5)
20107ef8:	8082                	ret

20107efa <__metal_driver_sifive_gpio0_config_int>:
__metal_driver_sifive_gpio0_config_int():
20107efa:	81818713          	add	a4,gp,-2024 # 80000a98 <__metal_dt_gpio_10012000>
20107efe:	4781                	li	a5,0
20107f00:	00a71463          	bne	a4,a0,20107f08 <__metal_driver_sifive_gpio0_config_int+0xe>
20107f04:	100127b7          	lui	a5,0x10012
20107f08:	471d                	li	a4,7
20107f0a:	02c76c63          	bltu	a4,a2,20107f42 <__metal_driver_sifive_gpio0_config_int+0x48>
20107f0e:	20105737          	lui	a4,0x20105
20107f12:	82470713          	add	a4,a4,-2012 # 20104824 <__metal_driver_vtable_sifive_led+0x14>
20107f16:	060a                	sll	a2,a2,0x2
20107f18:	963a                	add	a2,a2,a4
20107f1a:	4218                	lw	a4,0(a2)
20107f1c:	8702                	jr	a4
20107f1e:	4f98                	lw	a4,24(a5)
20107f20:	fff5c593          	not	a1,a1
20107f24:	8f6d                	and	a4,a4,a1
20107f26:	cf98                	sw	a4,24(a5)
20107f28:	5398                	lw	a4,32(a5)
20107f2a:	8f6d                	and	a4,a4,a1
20107f2c:	d398                	sw	a4,32(a5)
20107f2e:	5798                	lw	a4,40(a5)
20107f30:	8f6d                	and	a4,a4,a1
20107f32:	d798                	sw	a4,40(a5)
20107f34:	5b98                	lw	a4,48(a5)
20107f36:	8df9                	and	a1,a1,a4
20107f38:	db8c                	sw	a1,48(a5)
20107f3a:	a021                	j	20107f42 <__metal_driver_sifive_gpio0_config_int+0x48>
20107f3c:	4f98                	lw	a4,24(a5)
20107f3e:	8f4d                	or	a4,a4,a1
20107f40:	cf98                	sw	a4,24(a5)
20107f42:	4501                	li	a0,0
20107f44:	8082                	ret
20107f46:	4f98                	lw	a4,24(a5)
20107f48:	8f4d                	or	a4,a4,a1
20107f4a:	cf98                	sw	a4,24(a5)
20107f4c:	5398                	lw	a4,32(a5)
20107f4e:	8f4d                	or	a4,a4,a1
20107f50:	d398                	sw	a4,32(a5)
20107f52:	bfc5                	j	20107f42 <__metal_driver_sifive_gpio0_config_int+0x48>
20107f54:	5798                	lw	a4,40(a5)
20107f56:	8f4d                	or	a4,a4,a1
20107f58:	d798                	sw	a4,40(a5)
20107f5a:	b7e5                	j	20107f42 <__metal_driver_sifive_gpio0_config_int+0x48>
20107f5c:	5798                	lw	a4,40(a5)
20107f5e:	8f4d                	or	a4,a4,a1
20107f60:	d798                	sw	a4,40(a5)
20107f62:	5b98                	lw	a4,48(a5)
20107f64:	8f4d                	or	a4,a4,a1
20107f66:	db98                	sw	a4,48(a5)
20107f68:	bfe9                	j	20107f42 <__metal_driver_sifive_gpio0_config_int+0x48>
20107f6a:	4f98                	lw	a4,24(a5)
20107f6c:	8f4d                	or	a4,a4,a1
20107f6e:	cf98                	sw	a4,24(a5)
20107f70:	5398                	lw	a4,32(a5)
20107f72:	8f4d                	or	a4,a4,a1
20107f74:	d398                	sw	a4,32(a5)
20107f76:	5798                	lw	a4,40(a5)
20107f78:	8f4d                	or	a4,a4,a1
20107f7a:	d798                	sw	a4,40(a5)
20107f7c:	5b98                	lw	a4,48(a5)
20107f7e:	8dd9                	or	a1,a1,a4
20107f80:	bf65                	j	20107f38 <__metal_driver_sifive_gpio0_config_int+0x3e>

20107f82 <__metal_driver_sifive_gpio0_clear_int>:
__metal_driver_sifive_gpio0_clear_int():
20107f82:	81818713          	add	a4,gp,-2024 # 80000a98 <__metal_dt_gpio_10012000>
20107f86:	4781                	li	a5,0
20107f88:	00a71463          	bne	a4,a0,20107f90 <__metal_driver_sifive_gpio0_clear_int+0xe>
20107f8c:	100127b7          	lui	a5,0x10012
20107f90:	167d                	add	a2,a2,-1
20107f92:	4719                	li	a4,6
20107f94:	00c76d63          	bltu	a4,a2,20107fae <__metal_driver_sifive_gpio0_clear_int+0x2c>
20107f98:	20105737          	lui	a4,0x20105
20107f9c:	84470713          	add	a4,a4,-1980 # 20104844 <__metal_driver_vtable_sifive_led+0x34>
20107fa0:	060a                	sll	a2,a2,0x2
20107fa2:	963a                	add	a2,a2,a4
20107fa4:	4218                	lw	a4,0(a2)
20107fa6:	8702                	jr	a4
20107fa8:	4fd8                	lw	a4,28(a5)
20107faa:	8f4d                	or	a4,a4,a1
20107fac:	cfd8                	sw	a4,28(a5)
20107fae:	4501                	li	a0,0
20107fb0:	8082                	ret
20107fb2:	4fd8                	lw	a4,28(a5)
20107fb4:	8f4d                	or	a4,a4,a1
20107fb6:	cfd8                	sw	a4,28(a5)
20107fb8:	53d8                	lw	a4,36(a5)
20107fba:	8f4d                	or	a4,a4,a1
20107fbc:	d3d8                	sw	a4,36(a5)
20107fbe:	bfc5                	j	20107fae <__metal_driver_sifive_gpio0_clear_int+0x2c>
20107fc0:	57d8                	lw	a4,44(a5)
20107fc2:	8f4d                	or	a4,a4,a1
20107fc4:	d7d8                	sw	a4,44(a5)
20107fc6:	b7e5                	j	20107fae <__metal_driver_sifive_gpio0_clear_int+0x2c>
20107fc8:	57d8                	lw	a4,44(a5)
20107fca:	8f4d                	or	a4,a4,a1
20107fcc:	d7d8                	sw	a4,44(a5)
20107fce:	5bd8                	lw	a4,52(a5)
20107fd0:	8f4d                	or	a4,a4,a1
20107fd2:	dbd8                	sw	a4,52(a5)
20107fd4:	bfe9                	j	20107fae <__metal_driver_sifive_gpio0_clear_int+0x2c>
20107fd6:	4fd8                	lw	a4,28(a5)
20107fd8:	8f4d                	or	a4,a4,a1
20107fda:	cfd8                	sw	a4,28(a5)
20107fdc:	53d8                	lw	a4,36(a5)
20107fde:	8f4d                	or	a4,a4,a1
20107fe0:	d3d8                	sw	a4,36(a5)
20107fe2:	57d8                	lw	a4,44(a5)
20107fe4:	8f4d                	or	a4,a4,a1
20107fe6:	d7d8                	sw	a4,44(a5)
20107fe8:	5bd8                	lw	a4,52(a5)
20107fea:	8dd9                	or	a1,a1,a4
20107fec:	dbcc                	sw	a1,52(a5)
20107fee:	b7c1                	j	20107fae <__metal_driver_sifive_gpio0_clear_int+0x2c>

20107ff0 <__metal_driver_gpio_interrupt_controller>:
__metal_driver_gpio_interrupt_controller():
20107ff0:	81818793          	add	a5,gp,-2024 # 80000a98 <__metal_dt_gpio_10012000>
20107ff4:	00a79763          	bne	a5,a0,20108002 <__metal_driver_gpio_interrupt_controller+0x12>
20107ff8:	80000537          	lui	a0,0x80000
20107ffc:	0b050513          	add	a0,a0,176 # 800000b0 <__metal_dt_interrupt_controller_c000000>
20108000:	8082                	ret
20108002:	4501                	li	a0,0
20108004:	8082                	ret

20108006 <__metal_driver_gpio_get_interrupt_id>:
__metal_driver_gpio_get_interrupt_id():
20108006:	81818793          	add	a5,gp,-2024 # 80000a98 <__metal_dt_gpio_10012000>
2010800a:	08a79263          	bne	a5,a0,2010808e <__metal_driver_gpio_get_interrupt_id+0x88>
2010800e:	451d                	li	a0,7
20108010:	c1c1                	beqz	a1,20108090 <__metal_driver_gpio_get_interrupt_id+0x8a>
20108012:	4785                	li	a5,1
20108014:	4521                	li	a0,8
20108016:	06f58d63          	beq	a1,a5,20108090 <__metal_driver_gpio_get_interrupt_id+0x8a>
2010801a:	4789                	li	a5,2
2010801c:	4525                	li	a0,9
2010801e:	06f58963          	beq	a1,a5,20108090 <__metal_driver_gpio_get_interrupt_id+0x8a>
20108022:	478d                	li	a5,3
20108024:	4529                	li	a0,10
20108026:	06f58563          	beq	a1,a5,20108090 <__metal_driver_gpio_get_interrupt_id+0x8a>
2010802a:	4791                	li	a5,4
2010802c:	452d                	li	a0,11
2010802e:	06f58163          	beq	a1,a5,20108090 <__metal_driver_gpio_get_interrupt_id+0x8a>
20108032:	4795                	li	a5,5
20108034:	4531                	li	a0,12
20108036:	04f58d63          	beq	a1,a5,20108090 <__metal_driver_gpio_get_interrupt_id+0x8a>
2010803a:	4799                	li	a5,6
2010803c:	4535                	li	a0,13
2010803e:	04f58963          	beq	a1,a5,20108090 <__metal_driver_gpio_get_interrupt_id+0x8a>
20108042:	479d                	li	a5,7
20108044:	4539                	li	a0,14
20108046:	04f58563          	beq	a1,a5,20108090 <__metal_driver_gpio_get_interrupt_id+0x8a>
2010804a:	47a1                	li	a5,8
2010804c:	453d                	li	a0,15
2010804e:	04f58163          	beq	a1,a5,20108090 <__metal_driver_gpio_get_interrupt_id+0x8a>
20108052:	47a5                	li	a5,9
20108054:	4541                	li	a0,16
20108056:	02f58d63          	beq	a1,a5,20108090 <__metal_driver_gpio_get_interrupt_id+0x8a>
2010805a:	47a9                	li	a5,10
2010805c:	4545                	li	a0,17
2010805e:	02f58963          	beq	a1,a5,20108090 <__metal_driver_gpio_get_interrupt_id+0x8a>
20108062:	47ad                	li	a5,11
20108064:	4549                	li	a0,18
20108066:	02f58563          	beq	a1,a5,20108090 <__metal_driver_gpio_get_interrupt_id+0x8a>
2010806a:	47b1                	li	a5,12
2010806c:	454d                	li	a0,19
2010806e:	02f58163          	beq	a1,a5,20108090 <__metal_driver_gpio_get_interrupt_id+0x8a>
20108072:	47b5                	li	a5,13
20108074:	4551                	li	a0,20
20108076:	00f58d63          	beq	a1,a5,20108090 <__metal_driver_gpio_get_interrupt_id+0x8a>
2010807a:	47b9                	li	a5,14
2010807c:	4555                	li	a0,21
2010807e:	00f58963          	beq	a1,a5,20108090 <__metal_driver_gpio_get_interrupt_id+0x8a>
20108082:	47bd                	li	a5,15
20108084:	4501                	li	a0,0
20108086:	00f59563          	bne	a1,a5,20108090 <__metal_driver_gpio_get_interrupt_id+0x8a>
2010808a:	4559                	li	a0,22
2010808c:	8082                	ret
2010808e:	4501                	li	a0,0
20108090:	8082                	ret

20108092 <__metal_driver_sifive_uart0_interrupt_controller>:
__metal_driver_sifive_uart0_interrupt_controller():
20108092:	800007b7          	lui	a5,0x80000
20108096:	09078793          	add	a5,a5,144 # 80000090 <__metal_dt_serial_10013000>
2010809a:	00a79763          	bne	a5,a0,201080a8 <__metal_driver_sifive_uart0_interrupt_controller+0x16>
2010809e:	80000537          	lui	a0,0x80000
201080a2:	0b050513          	add	a0,a0,176 # 800000b0 <__metal_dt_interrupt_controller_c000000>
201080a6:	8082                	ret
201080a8:	4501                	li	a0,0
201080aa:	8082                	ret

201080ac <__metal_driver_sifive_uart0_get_interrupt_id>:
__metal_driver_sifive_uart0_get_interrupt_id():
201080ac:	800007b7          	lui	a5,0x80000
201080b0:	09078793          	add	a5,a5,144 # 80000090 <__metal_dt_serial_10013000>
201080b4:	00a79463          	bne	a5,a0,201080bc <__metal_driver_sifive_uart0_get_interrupt_id+0x10>
201080b8:	4515                	li	a0,5
201080ba:	8082                	ret
201080bc:	4501                	li	a0,0
201080be:	8082                	ret

201080c0 <__metal_driver_sifive_uart0_tx_interrupt_enable>:
__metal_driver_sifive_uart0_tx_interrupt_enable():
201080c0:	80000737          	lui	a4,0x80000
201080c4:	09070713          	add	a4,a4,144 # 80000090 <__metal_dt_serial_10013000>
201080c8:	4781                	li	a5,0
201080ca:	00a71463          	bne	a4,a0,201080d2 <__metal_driver_sifive_uart0_tx_interrupt_enable+0x12>
201080ce:	100137b7          	lui	a5,0x10013
201080d2:	4b98                	lw	a4,16(a5)
201080d4:	4501                	li	a0,0
201080d6:	00176713          	or	a4,a4,1
201080da:	cb98                	sw	a4,16(a5)
201080dc:	8082                	ret

201080de <__metal_driver_sifive_uart0_tx_interrupt_disable>:
__metal_driver_sifive_uart0_tx_interrupt_disable():
201080de:	80000737          	lui	a4,0x80000
201080e2:	09070713          	add	a4,a4,144 # 80000090 <__metal_dt_serial_10013000>
201080e6:	4781                	li	a5,0
201080e8:	00a71463          	bne	a4,a0,201080f0 <__metal_driver_sifive_uart0_tx_interrupt_disable+0x12>
201080ec:	100137b7          	lui	a5,0x10013
201080f0:	4b98                	lw	a4,16(a5)
201080f2:	4501                	li	a0,0
201080f4:	9b79                	and	a4,a4,-2
201080f6:	cb98                	sw	a4,16(a5)
201080f8:	8082                	ret

201080fa <__metal_driver_sifive_uart0_rx_interrupt_enable>:
__metal_driver_sifive_uart0_rx_interrupt_enable():
201080fa:	80000737          	lui	a4,0x80000
201080fe:	09070713          	add	a4,a4,144 # 80000090 <__metal_dt_serial_10013000>
20108102:	4781                	li	a5,0
20108104:	00a71463          	bne	a4,a0,2010810c <__metal_driver_sifive_uart0_rx_interrupt_enable+0x12>
20108108:	100137b7          	lui	a5,0x10013
2010810c:	4b98                	lw	a4,16(a5)
2010810e:	4501                	li	a0,0
20108110:	00276713          	or	a4,a4,2
20108114:	cb98                	sw	a4,16(a5)
20108116:	8082                	ret

20108118 <__metal_driver_sifive_uart0_rx_interrupt_disable>:
__metal_driver_sifive_uart0_rx_interrupt_disable():
20108118:	80000737          	lui	a4,0x80000
2010811c:	09070713          	add	a4,a4,144 # 80000090 <__metal_dt_serial_10013000>
20108120:	4781                	li	a5,0
20108122:	00a71463          	bne	a4,a0,2010812a <__metal_driver_sifive_uart0_rx_interrupt_disable+0x12>
20108126:	100137b7          	lui	a5,0x10013
2010812a:	4b98                	lw	a4,16(a5)
2010812c:	4501                	li	a0,0
2010812e:	9b75                	and	a4,a4,-3
20108130:	cb98                	sw	a4,16(a5)
20108132:	8082                	ret

20108134 <__metal_driver_sifive_uart0_txready>:
__metal_driver_sifive_uart0_txready():
20108134:	800007b7          	lui	a5,0x80000
20108138:	09078793          	add	a5,a5,144 # 80000090 <__metal_dt_serial_10013000>
2010813c:	00a79763          	bne	a5,a0,2010814a <__metal_driver_sifive_uart0_txready+0x16>
20108140:	100137b7          	lui	a5,0x10013
20108144:	4388                	lw	a0,0(a5)
20108146:	817d                	srl	a0,a0,0x1f
20108148:	8082                	ret
2010814a:	4781                	li	a5,0
2010814c:	bfe5                	j	20108144 <__metal_driver_sifive_uart0_txready+0x10>

2010814e <__metal_driver_sifive_uart0_set_tx_watermark>:
__metal_driver_sifive_uart0_set_tx_watermark():
2010814e:	80000737          	lui	a4,0x80000
20108152:	09070713          	add	a4,a4,144 # 80000090 <__metal_dt_serial_10013000>
20108156:	4781                	li	a5,0
20108158:	00a71463          	bne	a4,a0,20108160 <__metal_driver_sifive_uart0_set_tx_watermark+0x12>
2010815c:	100137b7          	lui	a5,0x10013
20108160:	4798                	lw	a4,8(a5)
20108162:	000706b7          	lui	a3,0x70
20108166:	05c2                	sll	a1,a1,0x10
20108168:	8df5                	and	a1,a1,a3
2010816a:	8dd9                	or	a1,a1,a4
2010816c:	c78c                	sw	a1,8(a5)
2010816e:	4501                	li	a0,0
20108170:	8082                	ret

20108172 <__metal_driver_sifive_uart0_get_tx_watermark>:
__metal_driver_sifive_uart0_get_tx_watermark():
20108172:	800007b7          	lui	a5,0x80000
20108176:	09078793          	add	a5,a5,144 # 80000090 <__metal_dt_serial_10013000>
2010817a:	00a79863          	bne	a5,a0,2010818a <__metal_driver_sifive_uart0_get_tx_watermark+0x18>
2010817e:	100137b7          	lui	a5,0x10013
20108182:	4788                	lw	a0,8(a5)
20108184:	8141                	srl	a0,a0,0x10
20108186:	891d                	and	a0,a0,7
20108188:	8082                	ret
2010818a:	4781                	li	a5,0
2010818c:	bfdd                	j	20108182 <__metal_driver_sifive_uart0_get_tx_watermark+0x10>

2010818e <__metal_driver_sifive_uart0_set_rx_watermark>:
__metal_driver_sifive_uart0_set_rx_watermark():
2010818e:	80000737          	lui	a4,0x80000
20108192:	09070713          	add	a4,a4,144 # 80000090 <__metal_dt_serial_10013000>
20108196:	4781                	li	a5,0
20108198:	00a71463          	bne	a4,a0,201081a0 <__metal_driver_sifive_uart0_set_rx_watermark+0x12>
2010819c:	100137b7          	lui	a5,0x10013
201081a0:	47d8                	lw	a4,12(a5)
201081a2:	000706b7          	lui	a3,0x70
201081a6:	05c2                	sll	a1,a1,0x10
201081a8:	8df5                	and	a1,a1,a3
201081aa:	8dd9                	or	a1,a1,a4
201081ac:	c7cc                	sw	a1,12(a5)
201081ae:	4501                	li	a0,0
201081b0:	8082                	ret

201081b2 <__metal_driver_sifive_uart0_get_rx_watermark>:
__metal_driver_sifive_uart0_get_rx_watermark():
201081b2:	800007b7          	lui	a5,0x80000
201081b6:	09078793          	add	a5,a5,144 # 80000090 <__metal_dt_serial_10013000>
201081ba:	00a79863          	bne	a5,a0,201081ca <__metal_driver_sifive_uart0_get_rx_watermark+0x18>
201081be:	100137b7          	lui	a5,0x10013
201081c2:	47c8                	lw	a0,12(a5)
201081c4:	8141                	srl	a0,a0,0x10
201081c6:	891d                	and	a0,a0,7
201081c8:	8082                	ret
201081ca:	4781                	li	a5,0
201081cc:	bfdd                	j	201081c2 <__metal_driver_sifive_uart0_get_rx_watermark+0x10>

201081ce <__metal_driver_sifive_uart0_putc>:
__metal_driver_sifive_uart0_putc():
201081ce:	1141                	add	sp,sp,-16
201081d0:	800007b7          	lui	a5,0x80000
201081d4:	c422                	sw	s0,8(sp)
201081d6:	c226                	sw	s1,4(sp)
201081d8:	c04a                	sw	s2,0(sp)
201081da:	c606                	sw	ra,12(sp)
201081dc:	09078793          	add	a5,a5,144 # 80000090 <__metal_dt_serial_10013000>
201081e0:	842a                	mv	s0,a0
201081e2:	84ae                	mv	s1,a1
201081e4:	4901                	li	s2,0
201081e6:	00f51463          	bne	a0,a5,201081ee <__metal_driver_sifive_uart0_putc+0x20>
201081ea:	10013937          	lui	s2,0x10013
201081ee:	8522                	mv	a0,s0
201081f0:	3791                	jal	20108134 <__metal_driver_sifive_uart0_txready>
201081f2:	fd75                	bnez	a0,201081ee <__metal_driver_sifive_uart0_putc+0x20>
201081f4:	40b2                	lw	ra,12(sp)
201081f6:	4422                	lw	s0,8(sp)
201081f8:	00992023          	sw	s1,0(s2) # 10013000 <__heap_size+0x10012800>
201081fc:	4492                	lw	s1,4(sp)
201081fe:	4902                	lw	s2,0(sp)
20108200:	0141                	add	sp,sp,16
20108202:	8082                	ret

20108204 <__metal_driver_sifive_uart0_getc>:
__metal_driver_sifive_uart0_getc():
20108204:	800007b7          	lui	a5,0x80000
20108208:	09078793          	add	a5,a5,144 # 80000090 <__metal_dt_serial_10013000>
2010820c:	4701                	li	a4,0
2010820e:	00a79463          	bne	a5,a0,20108216 <__metal_driver_sifive_uart0_getc+0x12>
20108212:	10013737          	lui	a4,0x10013
20108216:	4358                	lw	a4,4(a4)
20108218:	57fd                	li	a5,-1
2010821a:	00074463          	bltz	a4,20108222 <__metal_driver_sifive_uart0_getc+0x1e>
2010821e:	0ff77793          	zext.b	a5,a4
20108222:	c19c                	sw	a5,0(a1)
20108224:	4501                	li	a0,0
20108226:	8082                	ret

20108228 <__metal_driver_sifive_uart0_get_baud_rate>:
__metal_driver_sifive_uart0_get_baud_rate():
20108228:	4148                	lw	a0,4(a0)
2010822a:	8082                	ret

2010822c <__metal_driver_sifive_uart0_set_baud_rate>:
__metal_driver_sifive_uart0_set_baud_rate():
2010822c:	1141                	add	sp,sp,-16
2010822e:	c422                	sw	s0,8(sp)
20108230:	c606                	sw	ra,12(sp)
20108232:	800007b7          	lui	a5,0x80000
20108236:	09078793          	add	a5,a5,144 # 80000090 <__metal_dt_serial_10013000>
2010823a:	c14c                	sw	a1,4(a0)
2010823c:	842e                	mv	s0,a1
2010823e:	02f51963          	bne	a0,a5,20108270 <__metal_driver_sifive_uart0_set_baud_rate+0x44>
20108242:	80000537          	lui	a0,0x80000
20108246:	06c50793          	add	a5,a0,108 # 8000006c <__metal_dt_clock_4>
2010824a:	439c                	lw	a5,0(a5)
2010824c:	06c50513          	add	a0,a0,108
20108250:	439c                	lw	a5,0(a5)
20108252:	9782                	jalr	a5
20108254:	02854533          	div	a0,a0,s0
20108258:	100137b7          	lui	a5,0x10013
2010825c:	157d                	add	a0,a0,-1
2010825e:	cf88                	sw	a0,24(a5)
20108260:	4798                	lw	a4,8(a5)
20108262:	00176713          	or	a4,a4,1
20108266:	c798                	sw	a4,8(a5)
20108268:	47d8                	lw	a4,12(a5)
2010826a:	00176713          	or	a4,a4,1
2010826e:	c7d8                	sw	a4,12(a5)
20108270:	40b2                	lw	ra,12(sp)
20108272:	4422                	lw	s0,8(sp)
20108274:	4501                	li	a0,0
20108276:	0141                	add	sp,sp,16
20108278:	8082                	ret

2010827a <pre_rate_change_callback_func>:
pre_rate_change_callback_func():
2010827a:	1101                	add	sp,sp,-32
2010827c:	800007b7          	lui	a5,0x80000
20108280:	ca26                	sw	s1,20(sp)
20108282:	ce06                	sw	ra,28(sp)
20108284:	cc22                	sw	s0,24(sp)
20108286:	09078793          	add	a5,a5,144 # 80000090 <__metal_dt_serial_10013000>
2010828a:	84aa                	mv	s1,a0
2010828c:	04f51d63          	bne	a0,a5,201082e6 <pre_rate_change_callback_func+0x6c>
20108290:	80000737          	lui	a4,0x80000
20108294:	100137b7          	lui	a5,0x10013
20108298:	06c70513          	add	a0,a4,108 # 8000006c <__metal_dt_clock_4>
2010829c:	4798                	lw	a4,8(a5)
2010829e:	fff906b7          	lui	a3,0xfff90
201082a2:	16fd                	add	a3,a3,-1 # fff8ffff <metal_segment_heap_target_end+0x7ff8e88f>
201082a4:	8f75                	and	a4,a4,a3
201082a6:	c798                	sw	a4,8(a5)
201082a8:	4798                	lw	a4,8(a5)
201082aa:	66c1                	lui	a3,0x10
201082ac:	00878613          	add	a2,a5,8 # 10013008 <__heap_size+0x10012808>
201082b0:	8f55                	or	a4,a4,a3
201082b2:	c798                	sw	a4,8(a5)
201082b4:	4bd8                	lw	a4,20(a5)
201082b6:	8b05                	and	a4,a4,1
201082b8:	df75                	beqz	a4,201082b4 <pre_rate_change_callback_func+0x3a>
201082ba:	411c                	lw	a5,0(a0)
201082bc:	4200                	lw	s0,0(a2)
201082be:	439c                	lw	a5,0(a5)
201082c0:	8809                	and	s0,s0,2
201082c2:	00143413          	seqz	s0,s0
201082c6:	9782                	jalr	a5
201082c8:	0425                	add	s0,s0,9
201082ca:	02a40433          	mul	s0,s0,a0
201082ce:	40dc                	lw	a5,4(s1)
201082d0:	c602                	sw	zero,12(sp)
201082d2:	02f45433          	divu	s0,s0,a5
201082d6:	47b2                	lw	a5,12(sp)
201082d8:	0087ca63          	blt	a5,s0,201082ec <pre_rate_change_callback_func+0x72>
201082dc:	40f2                	lw	ra,28(sp)
201082de:	4462                	lw	s0,24(sp)
201082e0:	44d2                	lw	s1,20(sp)
201082e2:	6105                	add	sp,sp,32
201082e4:	8082                	ret
201082e6:	4781                	li	a5,0
201082e8:	4501                	li	a0,0
201082ea:	bf4d                	j	2010829c <pre_rate_change_callback_func+0x22>
201082ec:	0001                	nop
201082ee:	47b2                	lw	a5,12(sp)
201082f0:	0785                	add	a5,a5,1
201082f2:	c63e                	sw	a5,12(sp)
201082f4:	b7cd                	j	201082d6 <pre_rate_change_callback_func+0x5c>

201082f6 <__metal_driver_sifive_uart0_init>:
__metal_driver_sifive_uart0_init():
201082f6:	1101                	add	sp,sp,-32
201082f8:	800007b7          	lui	a5,0x80000
201082fc:	cc22                	sw	s0,24(sp)
201082fe:	ce06                	sw	ra,28(sp)
20108300:	ca26                	sw	s1,20(sp)
20108302:	c84a                	sw	s2,16(sp)
20108304:	c64e                	sw	s3,12(sp)
20108306:	09078793          	add	a5,a5,144 # 80000090 <__metal_dt_serial_10013000>
2010830a:	842a                	mv	s0,a0
2010830c:	00f50b63          	beq	a0,a5,20108322 <__metal_driver_sifive_uart0_init+0x2c>
20108310:	411c                	lw	a5,0(a0)
20108312:	4462                	lw	s0,24(sp)
20108314:	40f2                	lw	ra,28(sp)
20108316:	44d2                	lw	s1,20(sp)
20108318:	4942                	lw	s2,16(sp)
2010831a:	49b2                	lw	s3,12(sp)
2010831c:	4bdc                	lw	a5,20(a5)
2010831e:	6105                	add	sp,sp,32
20108320:	8782                	jr	a5
20108322:	201087b7          	lui	a5,0x20108
20108326:	27a78793          	add	a5,a5,634 # 2010827a <pre_rate_change_callback_func>
2010832a:	c51c                	sw	a5,8(a0)
2010832c:	00850993          	add	s3,a0,8
20108330:	80000937          	lui	s2,0x80000
20108334:	84ae                	mv	s1,a1
20108336:	c448                	sw	a0,12(s0)
20108338:	85ce                	mv	a1,s3
2010833a:	06c90513          	add	a0,s2,108 # 8000006c <__metal_dt_clock_4>
2010833e:	2049                	jal	201083c0 <metal_clock_register_pre_rate_change_callback>
20108340:	201087b7          	lui	a5,0x20108
20108344:	37e78793          	add	a5,a5,894 # 2010837e <post_rate_change_callback_func>
20108348:	c85c                	sw	a5,20(s0)
2010834a:	01440593          	add	a1,s0,20
2010834e:	06c90513          	add	a0,s2,108
20108352:	cc00                	sw	s0,24(s0)
20108354:	2049                	jal	201083d6 <metal_clock_register_post_rate_change_callback>
20108356:	401c                	lw	a5,0(s0)
20108358:	85a6                	mv	a1,s1
2010835a:	8522                	mv	a0,s0
2010835c:	4bdc                	lw	a5,20(a5)
2010835e:	9782                	jalr	a5
20108360:	8181a783          	lw	a5,-2024(gp) # 80000a98 <__metal_dt_gpio_10012000>
20108364:	4462                	lw	s0,24(sp)
20108366:	40f2                	lw	ra,28(sp)
20108368:	44d2                	lw	s1,20(sp)
2010836a:	4942                	lw	s2,16(sp)
2010836c:	49b2                	lw	s3,12(sp)
2010836e:	53dc                	lw	a5,36(a5)
20108370:	00030637          	lui	a2,0x30
20108374:	4581                	li	a1,0
20108376:	81818513          	add	a0,gp,-2024 # 80000a98 <__metal_dt_gpio_10012000>
2010837a:	6105                	add	sp,sp,32
2010837c:	8782                	jr	a5

2010837e <post_rate_change_callback_func>:
post_rate_change_callback_func():
2010837e:	4118                	lw	a4,0(a0)
20108380:	414c                	lw	a1,4(a0)
20108382:	4b58                	lw	a4,20(a4)
20108384:	8702                	jr	a4

20108386 <_metal_clock_call_all_callbacks>:
_metal_clock_call_all_callbacks():
20108386:	1141                	add	sp,sp,-16
20108388:	c422                	sw	s0,8(sp)
2010838a:	c606                	sw	ra,12(sp)
2010838c:	842a                	mv	s0,a0
2010838e:	e409                	bnez	s0,20108398 <_metal_clock_call_all_callbacks+0x12>
20108390:	40b2                	lw	ra,12(sp)
20108392:	4422                	lw	s0,8(sp)
20108394:	0141                	add	sp,sp,16
20108396:	8082                	ret
20108398:	401c                	lw	a5,0(s0)
2010839a:	4048                	lw	a0,4(s0)
2010839c:	9782                	jalr	a5
2010839e:	4400                	lw	s0,8(s0)
201083a0:	b7fd                	j	2010838e <_metal_clock_call_all_callbacks+0x8>

201083a2 <_metal_clock_append_to_callbacks>:
_metal_clock_append_to_callbacks():
201083a2:	87aa                	mv	a5,a0
201083a4:	0005a423          	sw	zero,8(a1)
201083a8:	852e                	mv	a0,a1
201083aa:	c799                	beqz	a5,201083b8 <_metal_clock_append_to_callbacks+0x16>
201083ac:	873e                	mv	a4,a5
201083ae:	86ba                	mv	a3,a4
201083b0:	4718                	lw	a4,8(a4)
201083b2:	ff75                	bnez	a4,201083ae <_metal_clock_append_to_callbacks+0xc>
201083b4:	c688                	sw	a0,8(a3)
201083b6:	853e                	mv	a0,a5
201083b8:	8082                	ret

201083ba <metal_clock_get_rate_hz>:
metal_clock_get_rate_hz():
201083ba:	411c                	lw	a5,0(a0)
201083bc:	439c                	lw	a5,0(a5)
201083be:	8782                	jr	a5

201083c0 <metal_clock_register_pre_rate_change_callback>:
metal_clock_register_pre_rate_change_callback():
201083c0:	1141                	add	sp,sp,-16
201083c2:	c422                	sw	s0,8(sp)
201083c4:	842a                	mv	s0,a0
201083c6:	4148                	lw	a0,4(a0)
201083c8:	c606                	sw	ra,12(sp)
201083ca:	3fe1                	jal	201083a2 <_metal_clock_append_to_callbacks>
201083cc:	40b2                	lw	ra,12(sp)
201083ce:	c048                	sw	a0,4(s0)
201083d0:	4422                	lw	s0,8(sp)
201083d2:	0141                	add	sp,sp,16
201083d4:	8082                	ret

201083d6 <metal_clock_register_post_rate_change_callback>:
metal_clock_register_post_rate_change_callback():
201083d6:	1141                	add	sp,sp,-16
201083d8:	c422                	sw	s0,8(sp)
201083da:	842a                	mv	s0,a0
201083dc:	4508                	lw	a0,8(a0)
201083de:	c606                	sw	ra,12(sp)
201083e0:	37c9                	jal	201083a2 <_metal_clock_append_to_callbacks>
201083e2:	40b2                	lw	ra,12(sp)
201083e4:	c408                	sw	a0,8(s0)
201083e6:	4422                	lw	s0,8(sp)
201083e8:	0141                	add	sp,sp,16
201083ea:	8082                	ret

201083ec <metal_shutdown>:
metal_shutdown():
201083ec:	0001                	nop
201083ee:	bffd                	j	201083ec <metal_shutdown>
	...

20108400 <__metal_vector_table>:
IRQ_0():
20108400:	d54fe06f          	j	20106954 <metal_interrupt_vector_handler>

20108404 <IRQ_1>:
IRQ_1():
20108404:	d50fe06f          	j	20106954 <metal_interrupt_vector_handler>

20108408 <IRQ_2>:
IRQ_2():
20108408:	d4cfe06f          	j	20106954 <metal_interrupt_vector_handler>

2010840c <IRQ_3>:
IRQ_3():
2010840c:	d72fe06f          	j	2010697e <metal_software_interrupt_vector_handler>

20108410 <IRQ_4>:
IRQ_4():
20108410:	d44fe06f          	j	20106954 <metal_interrupt_vector_handler>

20108414 <IRQ_5>:
IRQ_5():
20108414:	d40fe06f          	j	20106954 <metal_interrupt_vector_handler>

20108418 <IRQ_6>:
IRQ_6():
20108418:	d3cfe06f          	j	20106954 <metal_interrupt_vector_handler>

2010841c <IRQ_7>:
IRQ_7():
2010841c:	de0fe06f          	j	201069fc <metal_timer_interrupt_vector_handler>

20108420 <IRQ_8>:
IRQ_8():
20108420:	d34fe06f          	j	20106954 <metal_interrupt_vector_handler>

20108424 <IRQ_9>:
IRQ_9():
20108424:	d30fe06f          	j	20106954 <metal_interrupt_vector_handler>

20108428 <IRQ_10>:
IRQ_10():
20108428:	d2cfe06f          	j	20106954 <metal_interrupt_vector_handler>

2010842c <IRQ_11>:
IRQ_11():
2010842c:	d28fe06f          	j	20106954 <metal_interrupt_vector_handler>

20108430 <IRQ_12>:
IRQ_12():
20108430:	d24fe06f          	j	20106954 <metal_interrupt_vector_handler>

20108434 <IRQ_13>:
IRQ_13():
20108434:	d20fe06f          	j	20106954 <metal_interrupt_vector_handler>

20108438 <IRQ_14>:
IRQ_14():
20108438:	d1cfe06f          	j	20106954 <metal_interrupt_vector_handler>

2010843c <IRQ_15>:
IRQ_15():
2010843c:	d18fe06f          	j	20106954 <metal_interrupt_vector_handler>

20108440 <IRQ_LC0>:
IRQ_LC0():
20108440:	e3afe06f          	j	20106a7a <metal_lc0_interrupt_vector_handler>

20108444 <IRQ_LC1>:
IRQ_LC1():
20108444:	eb4fe06f          	j	20106af8 <metal_lc1_interrupt_vector_handler>

20108448 <IRQ_LC2>:
IRQ_LC2():
20108448:	f2efe06f          	j	20106b76 <metal_lc2_interrupt_vector_handler>

2010844c <IRQ_LC3>:
IRQ_LC3():
2010844c:	fa8fe06f          	j	20106bf4 <metal_lc3_interrupt_vector_handler>

20108450 <IRQ_LC4>:
IRQ_LC4():
20108450:	823fe06f          	j	20106c72 <metal_lc4_interrupt_vector_handler>

20108454 <IRQ_LC5>:
IRQ_LC5():
20108454:	89dfe06f          	j	20106cf0 <metal_lc5_interrupt_vector_handler>

20108458 <IRQ_LC6>:
IRQ_LC6():
20108458:	917fe06f          	j	20106d6e <metal_lc6_interrupt_vector_handler>

2010845c <IRQ_LC7>:
IRQ_LC7():
2010845c:	991fe06f          	j	20106dec <metal_lc7_interrupt_vector_handler>

20108460 <IRQ_LC8>:
IRQ_LC8():
20108460:	a0bfe06f          	j	20106e6a <metal_lc8_interrupt_vector_handler>

20108464 <IRQ_LC9>:
IRQ_LC9():
20108464:	a85fe06f          	j	20106ee8 <metal_lc9_interrupt_vector_handler>

20108468 <IRQ_LC10>:
IRQ_LC10():
20108468:	afffe06f          	j	20106f66 <metal_lc10_interrupt_vector_handler>

2010846c <IRQ_LC11>:
IRQ_LC11():
2010846c:	b79fe06f          	j	20106fe4 <metal_lc11_interrupt_vector_handler>

20108470 <IRQ_LC12>:
IRQ_LC12():
20108470:	bf3fe06f          	j	20107062 <metal_lc12_interrupt_vector_handler>

20108474 <IRQ_LC13>:
IRQ_LC13():
20108474:	c6dfe06f          	j	201070e0 <metal_lc13_interrupt_vector_handler>

20108478 <IRQ_LC14>:
IRQ_LC14():
20108478:	ce7fe06f          	j	2010715e <metal_lc14_interrupt_vector_handler>

2010847c <IRQ_LC15>:
IRQ_LC15():
2010847c:	d61fe06f          	j	201071dc <metal_lc15_interrupt_vector_handler>

20108480 <__metal_driver_fixed_clock_get_rate_hz>:
__metal_driver_fixed_clock_get_rate_hz():
20108480:	80001737          	lui	a4,0x80001
20108484:	a7070713          	add	a4,a4,-1424 # 80000a70 <__metal_dt_clock_0>
20108488:	87aa                	mv	a5,a0
2010848a:	02e50463          	beq	a0,a4,201084b2 <__metal_driver_fixed_clock_get_rate_hz+0x32>
2010848e:	80001737          	lui	a4,0x80001
20108492:	a6470713          	add	a4,a4,-1436 # 80000a64 <__metal_dt_clock_2>
20108496:	02e50363          	beq	a0,a4,201084bc <__metal_driver_fixed_clock_get_rate_hz+0x3c>
2010849a:	80001737          	lui	a4,0x80001
2010849e:	a5870713          	add	a4,a4,-1448 # 80000a58 <__metal_dt_clock_5>
201084a2:	4501                	li	a0,0
201084a4:	02e79063          	bne	a5,a4,201084c4 <__metal_driver_fixed_clock_get_rate_hz+0x44>
201084a8:	01e85537          	lui	a0,0x1e85
201084ac:	80050513          	add	a0,a0,-2048 # 1e84800 <__heap_size+0x1e84000>
201084b0:	8082                	ret
201084b2:	00f42537          	lui	a0,0xf42
201084b6:	40050513          	add	a0,a0,1024 # f42400 <__heap_size+0xf41c00>
201084ba:	8082                	ret
201084bc:	044aa537          	lui	a0,0x44aa
201084c0:	20050513          	add	a0,a0,512 # 44aa200 <__heap_size+0x44a9a00>
201084c4:	8082                	ret

201084c6 <__metal_driver_fixed_clock_set_rate_hz>:
__metal_driver_fixed_clock_set_rate_hz():
201084c6:	80001737          	lui	a4,0x80001
201084ca:	a7070713          	add	a4,a4,-1424 # 80000a70 <__metal_dt_clock_0>
201084ce:	87aa                	mv	a5,a0
201084d0:	02e50463          	beq	a0,a4,201084f8 <__metal_driver_fixed_clock_set_rate_hz+0x32>
201084d4:	80001737          	lui	a4,0x80001
201084d8:	a6470713          	add	a4,a4,-1436 # 80000a64 <__metal_dt_clock_2>
201084dc:	02e50363          	beq	a0,a4,20108502 <__metal_driver_fixed_clock_set_rate_hz+0x3c>
201084e0:	80001737          	lui	a4,0x80001
201084e4:	a5870713          	add	a4,a4,-1448 # 80000a58 <__metal_dt_clock_5>
201084e8:	4501                	li	a0,0
201084ea:	02e79063          	bne	a5,a4,2010850a <__metal_driver_fixed_clock_set_rate_hz+0x44>
201084ee:	01e85537          	lui	a0,0x1e85
201084f2:	80050513          	add	a0,a0,-2048 # 1e84800 <__heap_size+0x1e84000>
201084f6:	8082                	ret
201084f8:	00f42537          	lui	a0,0xf42
201084fc:	40050513          	add	a0,a0,1024 # f42400 <__heap_size+0xf41c00>
20108500:	8082                	ret
20108502:	044aa537          	lui	a0,0x44aa
20108506:	20050513          	add	a0,a0,512 # 44aa200 <__heap_size+0x44a9a00>
2010850a:	8082                	ret

2010850c <_close>:
_close():
2010850c:	1141                	add	sp,sp,-16
2010850e:	c606                	sw	ra,12(sp)
20108510:	28c1                	jal	201085e0 <__errno>
20108512:	40b2                	lw	ra,12(sp)
20108514:	05800793          	li	a5,88
20108518:	c11c                	sw	a5,0(a0)
2010851a:	557d                	li	a0,-1
2010851c:	0141                	add	sp,sp,16
2010851e:	8082                	ret

20108520 <_fstat>:
_fstat():
20108520:	1141                	add	sp,sp,-16
20108522:	c606                	sw	ra,12(sp)
20108524:	2875                	jal	201085e0 <__errno>
20108526:	40b2                	lw	ra,12(sp)
20108528:	fa800793          	li	a5,-88
2010852c:	c11c                	sw	a5,0(a0)
2010852e:	557d                	li	a0,-1
20108530:	0141                	add	sp,sp,16
20108532:	8082                	ret

20108534 <_isatty>:
_isatty():
20108534:	157d                	add	a0,a0,-1
20108536:	00153513          	seqz	a0,a0
2010853a:	8082                	ret

2010853c <_lseek>:
_lseek():
2010853c:	1141                	add	sp,sp,-16
2010853e:	c606                	sw	ra,12(sp)
20108540:	2045                	jal	201085e0 <__errno>
20108542:	40b2                	lw	ra,12(sp)
20108544:	05800793          	li	a5,88
20108548:	c11c                	sw	a5,0(a0)
2010854a:	557d                	li	a0,-1
2010854c:	0141                	add	sp,sp,16
2010854e:	8082                	ret

20108550 <_read>:
_read():
20108550:	1141                	add	sp,sp,-16
20108552:	c606                	sw	ra,12(sp)
20108554:	2071                	jal	201085e0 <__errno>
20108556:	40b2                	lw	ra,12(sp)
20108558:	05800793          	li	a5,88
2010855c:	c11c                	sw	a5,0(a0)
2010855e:	557d                	li	a0,-1
20108560:	0141                	add	sp,sp,16
20108562:	8082                	ret

20108564 <_sbrk>:
_sbrk():
20108564:	cf018713          	add	a4,gp,-784 # 80000f70 <_sp>
20108568:	4f018793          	add	a5,gp,1264 # 80001770 <metal_segment_heap_target_end>
2010856c:	02f70663          	beq	a4,a5,20108598 <_sbrk+0x34>
20108570:	85aa                	mv	a1,a0
20108572:	82c1a503          	lw	a0,-2004(gp) # 80000aac <__brk>
20108576:	00b506b3          	add	a3,a0,a1
2010857a:	00f6fd63          	bgeu	a3,a5,20108594 <_sbrk+0x30>
2010857e:	1101                	add	sp,sp,-32
20108580:	ce06                	sw	ra,28(sp)
20108582:	c62a                	sw	a0,12(sp)
20108584:	82d1a623          	sw	a3,-2004(gp) # 80000aac <__brk>
20108588:	b03f70ef          	jal	2010008a <metal_mem_scrub>
2010858c:	40f2                	lw	ra,28(sp)
2010858e:	4532                	lw	a0,12(sp)
20108590:	6105                	add	sp,sp,32
20108592:	8082                	ret
20108594:	82f1a623          	sw	a5,-2004(gp) # 80000aac <__brk>
20108598:	557d                	li	a0,-1
2010859a:	8082                	ret

2010859c <_write>:
write():
2010859c:	1141                	add	sp,sp,-16
2010859e:	c606                	sw	ra,12(sp)
201085a0:	c422                	sw	s0,8(sp)
201085a2:	c226                	sw	s1,4(sp)
201085a4:	4785                	li	a5,1
201085a6:	00f51963          	bne	a0,a5,201085b8 <_write+0x1c>
201085aa:	842e                	mv	s0,a1
201085ac:	00c584b3          	add	s1,a1,a2
201085b0:	00941e63          	bne	s0,s1,201085cc <_write+0x30>
201085b4:	4501                	li	a0,0
201085b6:	a031                	j	201085c2 <_write+0x26>
201085b8:	2025                	jal	201085e0 <__errno>
201085ba:	05800793          	li	a5,88
201085be:	c11c                	sw	a5,0(a0)
201085c0:	557d                	li	a0,-1
201085c2:	40b2                	lw	ra,12(sp)
201085c4:	4422                	lw	s0,8(sp)
201085c6:	4492                	lw	s1,4(sp)
201085c8:	0141                	add	sp,sp,16
201085ca:	8082                	ret
201085cc:	00044503          	lbu	a0,0(s0)
201085d0:	0405                	add	s0,s0,1
201085d2:	26f5                	jal	201089be <metal_tty_putc>
201085d4:	bff1                	j	201085b0 <_write+0x14>

201085d6 <atexit>:
atexit():
201085d6:	85aa                	mv	a1,a0
201085d8:	4681                	li	a3,0
201085da:	4601                	li	a2,0
201085dc:	4501                	li	a0,0
201085de:	ac11                	j	201087f2 <__register_exitproc>

201085e0 <__errno>:
__errno():
201085e0:	5fef8517          	auipc	a0,0x5fef8
201085e4:	4a052503          	lw	a0,1184(a0) # 80000a80 <_impure_ptr>
201085e8:	8082                	ret

201085ea <exit>:
exit():
201085ea:	1141                	add	sp,sp,-16
201085ec:	c422                	sw	s0,8(sp)
201085ee:	c606                	sw	ra,12(sp)
201085f0:	00000797          	auipc	a5,0x0
201085f4:	27e78793          	add	a5,a5,638 # 2010886e <__call_exitprocs>
201085f8:	842a                	mv	s0,a0
201085fa:	c399                	beqz	a5,20108600 <exit+0x16>
201085fc:	4581                	li	a1,0
201085fe:	2c85                	jal	2010886e <__call_exitprocs>
20108600:	ffffc517          	auipc	a0,0xffffc
20108604:	4d452503          	lw	a0,1236(a0) # 20104ad4 <_global_impure_ptr>
20108608:	551c                	lw	a5,40(a0)
2010860a:	c391                	beqz	a5,2010860e <exit+0x24>
2010860c:	9782                	jalr	a5
2010860e:	8522                	mv	a0,s0
20108610:	26d9                	jal	201089d6 <_exit>

20108612 <__libc_fini_array>:
__libc_fini_array():
20108612:	1141                	add	sp,sp,-16
20108614:	c422                	sw	s0,8(sp)
20108616:	c226                	sw	s1,4(sp)
20108618:	ffff8417          	auipc	s0,0xffff8
2010861c:	ca840413          	add	s0,s0,-856 # 201002c0 <__fini_array_end>
20108620:	ffff8497          	auipc	s1,0xffff8
20108624:	ca048493          	add	s1,s1,-864 # 201002c0 <__fini_array_end>
20108628:	8c05                	sub	s0,s0,s1
2010862a:	c606                	sw	ra,12(sp)
2010862c:	8409                	sra	s0,s0,0x2
2010862e:	e411                	bnez	s0,2010863a <__libc_fini_array+0x28>
20108630:	40b2                	lw	ra,12(sp)
20108632:	4422                	lw	s0,8(sp)
20108634:	4492                	lw	s1,4(sp)
20108636:	0141                	add	sp,sp,16
20108638:	8082                	ret
2010863a:	147d                	add	s0,s0,-1
2010863c:	00241793          	sll	a5,s0,0x2
20108640:	97a6                	add	a5,a5,s1
20108642:	439c                	lw	a5,0(a5)
20108644:	9782                	jalr	a5
20108646:	b7e5                	j	2010862e <__libc_fini_array+0x1c>

20108648 <__libc_init_array>:
__libc_init_array():
20108648:	1141                	add	sp,sp,-16
2010864a:	c422                	sw	s0,8(sp)
2010864c:	c226                	sw	s1,4(sp)
2010864e:	ffff8417          	auipc	s0,0xffff8
20108652:	c6240413          	add	s0,s0,-926 # 201002b0 <_use_hfxosc_ptr>
20108656:	ffff8497          	auipc	s1,0xffff8
2010865a:	c5a48493          	add	s1,s1,-934 # 201002b0 <_use_hfxosc_ptr>
2010865e:	8c81                	sub	s1,s1,s0
20108660:	c04a                	sw	s2,0(sp)
20108662:	c606                	sw	ra,12(sp)
20108664:	8489                	sra	s1,s1,0x2
20108666:	4901                	li	s2,0
20108668:	02991563          	bne	s2,s1,20108692 <__libc_init_array+0x4a>
2010866c:	ffff8417          	auipc	s0,0xffff8
20108670:	c4440413          	add	s0,s0,-956 # 201002b0 <_use_hfxosc_ptr>
20108674:	ffff8497          	auipc	s1,0xffff8
20108678:	c3c48493          	add	s1,s1,-964 # 201002b0 <_use_hfxosc_ptr>
2010867c:	8c81                	sub	s1,s1,s0
2010867e:	8489                	sra	s1,s1,0x2
20108680:	4901                	li	s2,0
20108682:	00991d63          	bne	s2,s1,2010869c <__libc_init_array+0x54>
20108686:	40b2                	lw	ra,12(sp)
20108688:	4422                	lw	s0,8(sp)
2010868a:	4492                	lw	s1,4(sp)
2010868c:	4902                	lw	s2,0(sp)
2010868e:	0141                	add	sp,sp,16
20108690:	8082                	ret
20108692:	401c                	lw	a5,0(s0)
20108694:	0905                	add	s2,s2,1
20108696:	0411                	add	s0,s0,4
20108698:	9782                	jalr	a5
2010869a:	b7f9                	j	20108668 <__libc_init_array+0x20>
2010869c:	401c                	lw	a5,0(s0)
2010869e:	0905                	add	s2,s2,1
201086a0:	0411                	add	s0,s0,4
201086a2:	9782                	jalr	a5
201086a4:	bff9                	j	20108682 <__libc_init_array+0x3a>

201086a6 <strcat>:
strcat():
201086a6:	87aa                	mv	a5,a0
201086a8:	0007c683          	lbu	a3,0(a5)
201086ac:	873e                	mv	a4,a5
201086ae:	0785                	add	a5,a5,1
201086b0:	fee5                	bnez	a3,201086a8 <strcat+0x2>
201086b2:	0005c783          	lbu	a5,0(a1)
201086b6:	0585                	add	a1,a1,1
201086b8:	0705                	add	a4,a4,1
201086ba:	fef70fa3          	sb	a5,-1(a4)
201086be:	fbf5                	bnez	a5,201086b2 <strcat+0xc>
201086c0:	8082                	ret

201086c2 <strcmp>:
strcmp():
201086c2:	00b56733          	or	a4,a0,a1
201086c6:	53fd                	li	t2,-1
201086c8:	8b0d                	and	a4,a4,3
201086ca:	e779                	bnez	a4,20108798 <strcmp+0xd6>
201086cc:	7f7f87b7          	lui	a5,0x7f7f8
201086d0:	f7f78793          	add	a5,a5,-129 # 7f7f7f7f <metal_segment_data_source_start+0x5f6ef59f>
201086d4:	4110                	lw	a2,0(a0)
201086d6:	4194                	lw	a3,0(a1)
201086d8:	00f672b3          	and	t0,a2,a5
201086dc:	00f66333          	or	t1,a2,a5
201086e0:	92be                	add	t0,t0,a5
201086e2:	0062e2b3          	or	t0,t0,t1
201086e6:	0c729763          	bne	t0,t2,201087b4 <strcmp+0xf2>
201086ea:	06d61863          	bne	a2,a3,2010875a <strcmp+0x98>
201086ee:	4150                	lw	a2,4(a0)
201086f0:	41d4                	lw	a3,4(a1)
201086f2:	00f672b3          	and	t0,a2,a5
201086f6:	00f66333          	or	t1,a2,a5
201086fa:	92be                	add	t0,t0,a5
201086fc:	0062e2b3          	or	t0,t0,t1
20108700:	0a729863          	bne	t0,t2,201087b0 <strcmp+0xee>
20108704:	04d61b63          	bne	a2,a3,2010875a <strcmp+0x98>
20108708:	4510                	lw	a2,8(a0)
2010870a:	4594                	lw	a3,8(a1)
2010870c:	00f672b3          	and	t0,a2,a5
20108710:	00f66333          	or	t1,a2,a5
20108714:	92be                	add	t0,t0,a5
20108716:	0062e2b3          	or	t0,t0,t1
2010871a:	0a729163          	bne	t0,t2,201087bc <strcmp+0xfa>
2010871e:	02d61e63          	bne	a2,a3,2010875a <strcmp+0x98>
20108722:	4550                	lw	a2,12(a0)
20108724:	45d4                	lw	a3,12(a1)
20108726:	00f672b3          	and	t0,a2,a5
2010872a:	00f66333          	or	t1,a2,a5
2010872e:	92be                	add	t0,t0,a5
20108730:	0062e2b3          	or	t0,t0,t1
20108734:	08729a63          	bne	t0,t2,201087c8 <strcmp+0x106>
20108738:	02d61163          	bne	a2,a3,2010875a <strcmp+0x98>
2010873c:	4910                	lw	a2,16(a0)
2010873e:	4994                	lw	a3,16(a1)
20108740:	00f672b3          	and	t0,a2,a5
20108744:	00f66333          	or	t1,a2,a5
20108748:	92be                	add	t0,t0,a5
2010874a:	0062e2b3          	or	t0,t0,t1
2010874e:	08729363          	bne	t0,t2,201087d4 <strcmp+0x112>
20108752:	0551                	add	a0,a0,20
20108754:	05d1                	add	a1,a1,20
20108756:	f6d60fe3          	beq	a2,a3,201086d4 <strcmp+0x12>
2010875a:	01061713          	sll	a4,a2,0x10
2010875e:	01069793          	sll	a5,a3,0x10
20108762:	00f71c63          	bne	a4,a5,2010877a <strcmp+0xb8>
20108766:	01065713          	srl	a4,a2,0x10
2010876a:	0106d793          	srl	a5,a3,0x10
2010876e:	40f70533          	sub	a0,a4,a5
20108772:	0ff57593          	zext.b	a1,a0
20108776:	e991                	bnez	a1,2010878a <strcmp+0xc8>
20108778:	8082                	ret
2010877a:	8341                	srl	a4,a4,0x10
2010877c:	83c1                	srl	a5,a5,0x10
2010877e:	40f70533          	sub	a0,a4,a5
20108782:	0ff57593          	zext.b	a1,a0
20108786:	e191                	bnez	a1,2010878a <strcmp+0xc8>
20108788:	8082                	ret
2010878a:	0ff77713          	zext.b	a4,a4
2010878e:	0ff7f793          	zext.b	a5,a5
20108792:	40f70533          	sub	a0,a4,a5
20108796:	8082                	ret
20108798:	00054603          	lbu	a2,0(a0)
2010879c:	0005c683          	lbu	a3,0(a1)
201087a0:	0505                	add	a0,a0,1
201087a2:	0585                	add	a1,a1,1
201087a4:	00d61363          	bne	a2,a3,201087aa <strcmp+0xe8>
201087a8:	fa65                	bnez	a2,20108798 <strcmp+0xd6>
201087aa:	40d60533          	sub	a0,a2,a3
201087ae:	8082                	ret
201087b0:	0511                	add	a0,a0,4
201087b2:	0591                	add	a1,a1,4
201087b4:	fed612e3          	bne	a2,a3,20108798 <strcmp+0xd6>
201087b8:	4501                	li	a0,0
201087ba:	8082                	ret
201087bc:	0521                	add	a0,a0,8
201087be:	05a1                	add	a1,a1,8
201087c0:	fcd61ce3          	bne	a2,a3,20108798 <strcmp+0xd6>
201087c4:	4501                	li	a0,0
201087c6:	8082                	ret
201087c8:	0531                	add	a0,a0,12
201087ca:	05b1                	add	a1,a1,12
201087cc:	fcd616e3          	bne	a2,a3,20108798 <strcmp+0xd6>
201087d0:	4501                	li	a0,0
201087d2:	8082                	ret
201087d4:	0541                	add	a0,a0,16
201087d6:	05c1                	add	a1,a1,16
201087d8:	fcd610e3          	bne	a2,a3,20108798 <strcmp+0xd6>
201087dc:	4501                	li	a0,0
201087de:	8082                	ret

201087e0 <strcpy>:
strcpy():
201087e0:	87aa                	mv	a5,a0
201087e2:	0005c703          	lbu	a4,0(a1)
201087e6:	0785                	add	a5,a5,1
201087e8:	0585                	add	a1,a1,1
201087ea:	fee78fa3          	sb	a4,-1(a5)
201087ee:	fb75                	bnez	a4,201087e2 <strcpy+0x2>
201087f0:	8082                	ret

201087f2 <__register_exitproc>:
__register_exitproc():
201087f2:	83c18713          	add	a4,gp,-1988 # 80000abc <_global_atexit>
201087f6:	431c                	lw	a5,0(a4)
201087f8:	88aa                	mv	a7,a0
201087fa:	e385                	bnez	a5,2010881a <__register_exitproc+0x28>
201087fc:	5fef8797          	auipc	a5,0x5fef8
20108800:	2cc78793          	add	a5,a5,716 # 80000ac8 <_global_atexit0>
20108804:	c31c                	sw	a5,0(a4)
20108806:	00000713          	li	a4,0
2010880a:	c701                	beqz	a4,20108812 <__register_exitproc+0x20>
2010880c:	4318                	lw	a4,0(a4)
2010880e:	08e7a423          	sw	a4,136(a5)
20108812:	5fef8797          	auipc	a5,0x5fef8
20108816:	2b678793          	add	a5,a5,694 # 80000ac8 <_global_atexit0>
2010881a:	43d8                	lw	a4,4(a5)
2010881c:	487d                	li	a6,31
2010881e:	557d                	li	a0,-1
20108820:	04e84663          	blt	a6,a4,2010886c <__register_exitproc+0x7a>
20108824:	02088d63          	beqz	a7,2010885e <__register_exitproc+0x6c>
20108828:	0887a803          	lw	a6,136(a5)
2010882c:	04080063          	beqz	a6,2010886c <__register_exitproc+0x7a>
20108830:	00271513          	sll	a0,a4,0x2
20108834:	9542                	add	a0,a0,a6
20108836:	c110                	sw	a2,0(a0)
20108838:	10082303          	lw	t1,256(a6)
2010883c:	4605                	li	a2,1
2010883e:	00e61633          	sll	a2,a2,a4
20108842:	00c36333          	or	t1,t1,a2
20108846:	10682023          	sw	t1,256(a6)
2010884a:	08d52023          	sw	a3,128(a0)
2010884e:	4689                	li	a3,2
20108850:	00d89763          	bne	a7,a3,2010885e <__register_exitproc+0x6c>
20108854:	10482683          	lw	a3,260(a6)
20108858:	8ed1                	or	a3,a3,a2
2010885a:	10d82223          	sw	a3,260(a6)
2010885e:	00170693          	add	a3,a4,1
20108862:	070a                	sll	a4,a4,0x2
20108864:	c3d4                	sw	a3,4(a5)
20108866:	97ba                	add	a5,a5,a4
20108868:	c78c                	sw	a1,8(a5)
2010886a:	4501                	li	a0,0
2010886c:	8082                	ret

2010886e <__call_exitprocs>:
__call_exitprocs():
2010886e:	7179                	add	sp,sp,-48
20108870:	ca56                	sw	s5,20(sp)
20108872:	c85a                	sw	s6,16(sp)
20108874:	c65e                	sw	s7,12(sp)
20108876:	c462                	sw	s8,8(sp)
20108878:	d606                	sw	ra,44(sp)
2010887a:	d422                	sw	s0,40(sp)
2010887c:	d226                	sw	s1,36(sp)
2010887e:	d04a                	sw	s2,32(sp)
20108880:	ce4e                	sw	s3,28(sp)
20108882:	cc52                	sw	s4,24(sp)
20108884:	c266                	sw	s9,4(sp)
20108886:	8b2a                	mv	s6,a0
20108888:	8aae                	mv	s5,a1
2010888a:	83c18b93          	add	s7,gp,-1988 # 80000abc <_global_atexit>
2010888e:	4c05                	li	s8,1
20108890:	000ba483          	lw	s1,0(s7)
20108894:	cc81                	beqz	s1,201088ac <__call_exitprocs+0x3e>
20108896:	40c0                	lw	s0,4(s1)
20108898:	0884a983          	lw	s3,136(s1)
2010889c:	fff40913          	add	s2,s0,-1
201088a0:	040a                	sll	s0,s0,0x2
201088a2:	00898a33          	add	s4,s3,s0
201088a6:	9426                	add	s0,s0,s1
201088a8:	00095f63          	bgez	s2,201088c6 <__call_exitprocs+0x58>
201088ac:	50b2                	lw	ra,44(sp)
201088ae:	5422                	lw	s0,40(sp)
201088b0:	5492                	lw	s1,36(sp)
201088b2:	5902                	lw	s2,32(sp)
201088b4:	49f2                	lw	s3,28(sp)
201088b6:	4a62                	lw	s4,24(sp)
201088b8:	4ad2                	lw	s5,20(sp)
201088ba:	4b42                	lw	s6,16(sp)
201088bc:	4bb2                	lw	s7,12(sp)
201088be:	4c22                	lw	s8,8(sp)
201088c0:	4c92                	lw	s9,4(sp)
201088c2:	6145                	add	sp,sp,48
201088c4:	8082                	ret
201088c6:	000a8c63          	beqz	s5,201088de <__call_exitprocs+0x70>
201088ca:	00099663          	bnez	s3,201088d6 <__call_exitprocs+0x68>
201088ce:	197d                	add	s2,s2,-1
201088d0:	1a71                	add	s4,s4,-4
201088d2:	1471                	add	s0,s0,-4
201088d4:	bfd1                	j	201088a8 <__call_exitprocs+0x3a>
201088d6:	07ca2783          	lw	a5,124(s4)
201088da:	ff579ae3          	bne	a5,s5,201088ce <__call_exitprocs+0x60>
201088de:	40d8                	lw	a4,4(s1)
201088e0:	405c                	lw	a5,4(s0)
201088e2:	177d                	add	a4,a4,-1
201088e4:	03271863          	bne	a4,s2,20108914 <__call_exitprocs+0xa6>
201088e8:	0124a223          	sw	s2,4(s1)
201088ec:	d3ed                	beqz	a5,201088ce <__call_exitprocs+0x60>
201088ee:	0044ac83          	lw	s9,4(s1)
201088f2:	00098863          	beqz	s3,20108902 <__call_exitprocs+0x94>
201088f6:	1009a683          	lw	a3,256(s3)
201088fa:	012c1733          	sll	a4,s8,s2
201088fe:	8ef9                	and	a3,a3,a4
20108900:	ee89                	bnez	a3,2010891a <__call_exitprocs+0xac>
20108902:	9782                	jalr	a5
20108904:	40d8                	lw	a4,4(s1)
20108906:	000ba783          	lw	a5,0(s7)
2010890a:	f99713e3          	bne	a4,s9,20108890 <__call_exitprocs+0x22>
2010890e:	fcf480e3          	beq	s1,a5,201088ce <__call_exitprocs+0x60>
20108912:	bfbd                	j	20108890 <__call_exitprocs+0x22>
20108914:	00042223          	sw	zero,4(s0)
20108918:	bfd1                	j	201088ec <__call_exitprocs+0x7e>
2010891a:	1049a683          	lw	a3,260(s3)
2010891e:	ffca2583          	lw	a1,-4(s4)
20108922:	8f75                	and	a4,a4,a3
20108924:	e701                	bnez	a4,2010892c <__call_exitprocs+0xbe>
20108926:	855a                	mv	a0,s6
20108928:	9782                	jalr	a5
2010892a:	bfe9                	j	20108904 <__call_exitprocs+0x96>
2010892c:	852e                	mv	a0,a1
2010892e:	9782                	jalr	a5
20108930:	bfd1                	j	20108904 <__call_exitprocs+0x96>

20108932 <metal_init>:
metal_init():
20108932:	8441a703          	lw	a4,-1980(gp) # 80000ac4 <init_done.1>
20108936:	ef1d                	bnez	a4,20108974 <metal_init+0x42>
20108938:	1141                	add	sp,sp,-16
2010893a:	c422                	sw	s0,8(sp)
2010893c:	c226                	sw	s1,4(sp)
2010893e:	20100437          	lui	s0,0x20100
20108942:	4705                	li	a4,1
20108944:	201004b7          	lui	s1,0x20100
20108948:	84e1a223          	sw	a4,-1980(gp) # 80000ac4 <init_done.1>
2010894c:	c606                	sw	ra,12(sp)
2010894e:	2b040793          	add	a5,s0,688 # 201002b0 <_use_hfxosc_ptr>
20108952:	2bc48493          	add	s1,s1,700 # 201002bc <metal_sifive_fe310_g000_pll_init>
20108956:	2b040413          	add	s0,s0,688
2010895a:	0097ea63          	bltu	a5,s1,2010896e <metal_init+0x3c>
2010895e:	40b2                	lw	ra,12(sp)
20108960:	4422                	lw	s0,8(sp)
20108962:	4492                	lw	s1,4(sp)
20108964:	0141                	add	sp,sp,16
20108966:	8082                	ret
20108968:	401c                	lw	a5,0(s0)
2010896a:	0411                	add	s0,s0,4
2010896c:	9782                	jalr	a5
2010896e:	fe941de3          	bne	s0,s1,20108968 <metal_init+0x36>
20108972:	b7f5                	j	2010895e <metal_init+0x2c>
20108974:	8082                	ret

20108976 <metal_fini>:
metal_fini():
20108976:	8401a703          	lw	a4,-1984(gp) # 80000ac0 <fini_done.0>
2010897a:	ef1d                	bnez	a4,201089b8 <metal_fini+0x42>
2010897c:	1141                	add	sp,sp,-16
2010897e:	c422                	sw	s0,8(sp)
20108980:	c226                	sw	s1,4(sp)
20108982:	20100437          	lui	s0,0x20100
20108986:	4705                	li	a4,1
20108988:	201004b7          	lui	s1,0x20100
2010898c:	84e1a023          	sw	a4,-1984(gp) # 80000ac0 <fini_done.0>
20108990:	c606                	sw	ra,12(sp)
20108992:	2c040793          	add	a5,s0,704 # 201002c0 <__fini_array_end>
20108996:	2c048493          	add	s1,s1,704 # 201002c0 <__fini_array_end>
2010899a:	2c040413          	add	s0,s0,704
2010899e:	0097ea63          	bltu	a5,s1,201089b2 <metal_fini+0x3c>
201089a2:	40b2                	lw	ra,12(sp)
201089a4:	4422                	lw	s0,8(sp)
201089a6:	4492                	lw	s1,4(sp)
201089a8:	0141                	add	sp,sp,16
201089aa:	8082                	ret
201089ac:	401c                	lw	a5,0(s0)
201089ae:	0411                	add	s0,s0,4
201089b0:	9782                	jalr	a5
201089b2:	fe941de3          	bne	s0,s1,201089ac <metal_fini+0x36>
201089b6:	b7f5                	j	201089a2 <metal_fini+0x2c>
201089b8:	8082                	ret

201089ba <metal_init_run>:
metal_init_run():
201089ba:	bfa5                	j	20108932 <metal_init>

201089bc <metal_fini_run>:
metal_fini_run():
201089bc:	bf6d                	j	20108976 <metal_fini>

201089be <metal_tty_putc>:
metal_tty_putc():
201089be:	85aa                	mv	a1,a0
201089c0:	80000537          	lui	a0,0x80000
201089c4:	09050513          	add	a0,a0,144 # 80000090 <__metal_dt_serial_10013000>
201089c8:	a021                	j	201089d0 <metal_uart_putc>

201089ca <metal_uart_init>:
metal_uart_init():
201089ca:	411c                	lw	a5,0(a0)
201089cc:	439c                	lw	a5,0(a5)
201089ce:	8782                	jr	a5

201089d0 <metal_uart_putc>:
metal_uart_putc():
201089d0:	411c                	lw	a5,0(a0)
201089d2:	43dc                	lw	a5,4(a5)
201089d4:	8782                	jr	a5

201089d6 <_exit>:
_exit():
201089d6:	1141                	add	sp,sp,-16
201089d8:	c606                	sw	ra,12(sp)
201089da:	a13ff0ef          	jal	201083ec <metal_shutdown>
